(i__main__
Plexondata
p1
(dp2
S'filename'
p3
S'm0210.spotmap5.000.plx'
p4
sS'trialdata'
p5
(dp6
I37
(dp7
S'sig01b'
(lp8
I140
aI161
aI183
aI220
aI240
aI368
aI1496
aI1520
aI1560
aI1599
aI1627
aI1680
aI1705
aI2887
aI2889
aI2997
aI3100
aI3170
aI3214
aI3242
aI3253
aI3287
aI3321
aI3333
aI3342
aI3349
aI3369
aI3381
aI3410
aI3427
aI3609
aI3639
aI3645
aI3658
aI3672
aI3688
aI3746
aI3808
aI3818
aI3839
aI3986
aI4022
aI4092
aI4144
aI4177
aI4242
aI4249
aI4255
aI4266
aI4288
aI4313
aI4339
aI4351
aI4366
aI4383
aI4402
aI4407
aI4414
aI4429
aI4450
aI4463
aI4476
aI4507
aI4536
aI4565
aI4587
aI4613
aI4618
aI4634
aI4640
aI4645
aI4659
aI4664
aI4673
aI4676
aI4691
aI4708
aI4715
aI4724
aI4742
aI4745
aI4756
aI4778
aI4811
aI4882
aI4893
aI4932
aI4954
aI4963
aI4994
aI5014
aI5134
aI5154
aI5167
aI5296
aI5363
aI5376
aI5402
aI5407
aI5424
aI5550
aI5648
aI5656
aI5666
aI5680
aI5700
aI5723
aI5742
aI5747
aI5759
aI5777
aI5797
aI5824
aI5829
aI5838
aI5871
aI5918
aI5944
aI5968
aI6097
aI6112
aI6363
aI6383
aI6561
aI6569
aI6585
aI6620
aI6637
aI6651
aI6680
aI6689
aI6704
aI6713
aI6729
aI6760
aI6819
aI6915
aI7042
aI7074
aI7318
aI7397
aI7410
aI7418
aI7428
asS'sig01a'
(lp9
I52
aI56
aI63
aI65
aI67
aI119
aI121
aI133
aI158
aI197
aI204
aI255
aI543
aI685
aI688
aI689
aI696
aI698
aI700
aI810
aI934
aI940
aI1094
aI1126
aI1278
aI1280
aI1328
aI1331
aI1539
aI1557
aI1562
aI1573
aI1585
aI1610
aI1872
aI1887
aI1889
aI1892
aI1895
aI1904
aI1908
aI1913
aI1915
aI1917
aI2036
aI2052
aI2125
aI2245
aI2295
aI2331
aI2358
aI2381
aI2457
aI2511
aI2547
aI2598
aI2605
aI2606
aI2612
aI2614
aI2616
aI2619
aI2745
aI2821
aI2882
aI2885
aI2906
aI2921
aI2953
aI2988
aI2990
aI3205
aI3223
aI3445
aI3449
aI3451
aI3814
aI3823
aI3824
aI3923
aI4001
aI4012
aI4020
aI4176
aI4213
aI4243
aI4378
aI4381
aI4386
aI4394
aI4396
aI4404
aI4414
aI4426
aI4438
aI4442
aI4444
aI4553
aI4595
aI4605
aI4628
aI4649
aI4759
aI4819
aI4820
aI4822
aI4825
aI4910
aI5196
aI5240
aI5355
aI5408
aI5409
aI5413
aI5658
aI5659
aI5662
aI5664
aI5710
aI5879
aI5913
aI6081
aI6090
aI6092
aI6096
aI6448
aI6491
aI6546
aI6548
aI6564
aI6566
aI6582
aI6761
aI6763
aI6769
aI6815
aI6869
aI7008
aI7017
aI7146
aI7186
aI7370
aI7416
aI7424
aI7436
aI7437
assI36
(dp10
S'sig01b'
(lp11
I2657
aI2663
aI3544
aI3580
aI3712
aI3718
aI3821
aI3851
aI3953
aI4193
aI4283
aI4308
aI4621
aI4665
aI4694
aI4723
aI4754
aI4774
aI4792
aI4813
aI4830
aI4861
aI4892
aI4922
aI4934
aI4949
aI4963
aI4972
aI4980
aI4988
aI4994
aI5010
aI5017
aI5023
aI5026
aI5043
aI5050
aI5055
aI5057
aI5063
aI5068
aI5090
aI5093
aI5116
aI5259
aI5284
aI5318
aI5350
aI5365
aI5367
aI5381
aI5393
aI5415
aI5431
aI5584
aI5692
aI5786
aI5879
aI5887
aI5894
aI5900
aI5914
aI5986
aI6064
aI6103
aI6111
aI6125
aI6129
aI6153
aI6163
aI6171
aI6183
aI6191
aI6202
aI6205
aI6215
aI6268
aI6351
aI6388
aI6429
aI6441
aI6462
aI6487
aI6582
aI6898
aI6994
aI7015
aI7072
aI7076
aI7088
aI7096
aI7109
aI7116
aI7146
aI7261
aI7300
aI7315
aI7341
aI7359
aI7364
aI7377
aI7394
aI7401
aI7414
aI7433
aI7477
aI7503
aI7540
aI7861
aI7886
aI8119
aI8131
asS'sig01a'
(lp12
I46
aI369
aI499
aI641
aI787
aI805
aI808
aI809
aI811
aI813
aI815
aI817
aI826
aI1040
aI1149
aI1155
aI1158
aI1189
aI1190
aI1379
aI1389
aI1393
aI1455
aI1520
aI1633
aI1659
aI1661
aI1665
aI1666
aI1668
aI1686
aI1853
aI1930
aI1961
aI1988
aI2008
aI2099
aI2101
aI2104
aI2137
aI2223
aI2345
aI2348
aI2495
aI2631
aI2659
aI2664
aI2667
aI2670
aI2672
aI2844
aI3047
aI3049
aI3078
aI3153
aI3212
aI3321
aI3327
aI3330
aI3337
aI3501
aI3553
aI3566
aI3698
aI3702
aI3909
aI4005
aI4056
aI4104
aI4205
aI4227
aI4427
aI4614
aI4673
aI4708
aI4772
aI4841
aI4875
aI4905
aI4905
aI4910
aI4911
aI4913
aI4915
aI4918
aI4924
aI4931
aI4937
aI4981
aI5001
aI5003
aI5007
aI5020
aI5025
aI5033
aI5049
aI5084
aI5131
aI5144
aI5223
aI5246
aI5347
aI5412
aI5495
aI5514
aI5608
aI5614
aI5618
aI5656
aI5657
aI5661
aI5663
aI5694
aI5873
aI5876
aI5878
aI5885
aI6074
aI6074
aI6078
aI6089
aI6093
aI6110
aI6142
aI6144
aI6145
aI6176
aI6194
aI6227
aI6237
aI6246
aI6437
aI6482
aI6584
aI6864
aI6894
aI7070
aI7077
aI7121
aI7232
aI7273
aI7279
aI7284
aI7321
aI7327
aI7334
aI7396
aI7462
aI7514
aI7523
aI7526
aI7714
aI7784
aI7951
aI7985
aI8103
aI8117
aI8124
assI35
(dp13
S'sig01b'
(lp14
I447
aI893
aI1378
aI1388
aI1421
aI1485
aI3573
aI3581
aI3589
aI3599
aI3611
aI3622
aI3743
aI3768
aI3785
aI3801
aI3820
aI3854
aI3886
aI3905
aI3948
aI3964
aI3982
aI4013
aI4040
aI4064
aI4116
aI4144
aI4166
aI4180
aI4213
aI4227
aI4236
aI4243
aI4260
aI4284
aI4295
aI4323
aI4332
aI4341
aI4354
aI4387
aI4399
aI4411
aI4420
aI4462
aI4466
aI4472
aI4475
aI4490
aI4505
aI4522
aI4539
aI4546
aI4562
aI4586
aI4605
aI4695
aI4722
aI4737
aI4763
aI4814
aI4839
aI4922
aI4936
aI4950
aI5062
aI5131
aI5139
aI5145
aI5155
aI5163
aI5175
aI5181
aI5186
aI5226
aI5248
aI5275
aI5321
aI5334
aI5352
aI5360
aI5376
aI5393
aI5409
aI5425
aI5445
aI5451
aI5464
aI5479
aI5488
aI5492
aI5508
aI5515
aI5529
aI5551
aI5568
aI5572
aI5585
aI5605
aI5616
aI5641
aI5653
aI5658
aI5664
aI5668
aI5679
aI5685
aI5695
aI5706
aI5790
aI5848
aI5876
asS'sig01a'
(lp15
I416
aI475
aI496
aI608
aI748
aI984
aI1065
aI1127
aI1152
aI1233
aI1405
aI1509
aI1656
aI1923
aI2027
aI2075
aI2235
aI2403
aI2422
aI2504
aI2513
aI2515
aI2530
aI2790
aI2815
aI3151
aI3185
aI3229
aI3294
aI3328
aI3333
aI3335
aI3344
aI3346
aI3416
aI3429
aI3431
aI3576
aI3578
aI3580
aI3583
aI3586
aI3748
aI3751
aI3919
aI3973
aI4032
aI4053
aI4130
aI4313
aI4331
aI4339
aI4445
aI4516
aI4549
aI4619
aI4622
aI4785
aI4933
aI4936
aI4939
aI4941
aI4943
aI4947
aI5096
aI5106
aI5107
aI5118
aI5129
aI5150
aI5151
aI5154
aI5161
aI5169
aI5171
aI5195
aI5206
aI5212
aI5215
aI5224
aI5232
aI5240
aI5266
aI5270
aI5416
aI5474
aI5501
aI5504
aI5520
aI5527
aI5586
aI5608
aI5627
aI5634
aI5648
aI5711
aI5726
aI5838
assI34
(dp16
S'sig01b'
(lp17
I580
aI609
aI630
aI739
aI1982
aI2701
aI2831
aI2931
aI3301
aI3357
aI3365
aI3376
aI3383
aI3392
aI3401
aI3408
aI3418
aI3427
aI3437
aI3441
aI3539
aI3597
aI3648
aI3677
aI3699
aI3738
aI3806
aI3929
aI3936
aI4337
aI4346
aI4369
aI4414
aI4424
aI4433
aI4447
aI4455
aI4528
aI4550
aI4598
aI4611
aI4631
aI4663
aI4686
aI4711
aI4731
aI4747
aI4771
aI4782
aI4806
aI4833
aI4839
aI4876
aI4881
aI4887
aI4898
aI4912
aI4926
aI4942
aI4949
aI4962
aI4978
aI5182
aI5223
aI5244
aI5250
aI5358
aI5376
aI5383
aI5394
aI5543
aI5548
aI5551
aI5566
aI5828
aI5851
aI5861
aI5875
aI5880
aI5895
aI5911
aI5930
aI5934
aI5944
aI6053
aI6227
aI6239
aI6262
aI6269
aI6279
aI6308
aI6320
aI6327
aI6335
aI6363
aI6379
aI6395
aI6413
aI6430
aI6489
aI6504
aI6519
aI6624
aI6655
aI6748
aI6769
aI6787
aI6975
aI7000
aI7012
aI7017
aI7105
aI7123
aI7131
aI7148
aI7401
aI7409
aI7425
aI7438
aI7450
aI7476
aI7492
aI7497
aI7519
aI7531
aI7542
aI7553
aI7560
aI7573
aI7595
aI7635
aI7647
aI7652
aI7659
aI7663
aI7672
aI7678
aI7682
aI7804
aI7831
aI7849
aI7909
aI7921
aI7943
asS'sig01a'
(lp18
I330
aI415
aI538
aI566
aI756
aI1282
aI1328
aI1334
aI1336
aI1521
aI1639
aI1641
aI1644
aI1646
aI1860
aI1923
aI2119
aI2123
aI2129
aI2131
aI2342
aI2414
aI2475
aI2591
aI2594
aI2739
aI2822
aI2838
aI2840
aI3108
aI3228
aI3277
aI3308
aI3316
aI3323
aI3340
aI3342
aI3344
aI3391
aI3433
aI3445
aI3446
aI3448
aI3451
aI3629
aI3631
aI3795
aI3839
aI3888
aI3899
aI3981
aI3990
aI4065
aI4217
aI4317
aI4326
aI4329
aI4333
aI4386
aI4400
aI4413
aI4466
aI4479
aI4482
aI4841
aI4844
aI4851
aI4858
aI4861
aI4862
aI4877
aI4971
aI5087
aI5195
aI5197
aI5199
aI5205
aI5221
aI5312
aI5415
aI5453
aI5553
aI5556
aI5825
aI5830
aI5834
aI5836
aI5884
aI5927
aI5950
aI5952
aI6187
aI6222
aI6240
aI6244
aI6265
aI6268
aI6292
aI6361
aI6388
aI6534
aI6552
aI6554
aI6761
aI6808
aI6988
aI7008
aI7009
aI7014
aI7021
aI7101
aI7104
aI7108
aI7110
aI7115
aI7118
aI7392
aI7403
aI7404
aI7430
aI7467
aI7475
aI7504
aI7509
aI7577
aI7600
aI7617
aI7644
aI7689
aI7789
aI7792
aI7795
aI7949
assI33
(dp19
S'sig01b'
(lp20
I1545
aI1759
aI1770
aI1777
aI1821
aI2161
aI2526
aI2679
aI2826
aI2870
aI2888
aI2918
aI2970
aI2991
aI3020
aI3469
aI3504
aI3522
aI3803
aI3853
aI3863
aI3891
aI3909
aI3942
aI3957
aI3971
aI3988
aI4011
aI4038
aI4050
aI4079
aI4086
aI4099
aI4116
aI4125
aI4141
aI4153
aI4162
aI4181
aI4196
aI4206
aI4254
aI4328
aI4515
aI4649
aI4673
aI4678
aI4685
aI4694
aI4700
aI4706
aI4709
aI4716
aI4720
aI4725
aI4729
aI4738
aI4744
aI4761
aI4776
aI4811
aI4835
aI4902
aI5100
aI5116
aI5378
aI5403
aI5496
aI5654
aI5843
aI5854
aI5872
aI5890
aI5911
aI5926
aI5947
aI5959
aI5966
aI5980
aI5998
aI6019
aI6351
aI6400
aI6619
aI6652
aI6699
aI7083
aI7242
aI7336
aI7381
aI7393
aI7398
aI7404
aI7412
aI7419
aI7431
aI7476
aI7479
aI7495
aI7504
aI7513
aI7517
aI7521
aI7531
aI7541
aI7552
aI7557
aI7578
aI7683
aI7707
aI7714
aI7717
aI7724
aI7754
aI7872
aI7882
aI7903
aI7907
aI7922
aI8123
aI8315
aI8342
aI8369
aI8404
aI8414
asS'sig01a'
(lp21
I113
aI209
aI389
aI402
aI588
aI717
aI889
aI902
aI1031
aI1263
aI1730
aI1865
aI1998
aI2232
aI2839
aI2903
aI3012
aI3024
aI3026
aI3518
aI3571
aI3597
aI3600
aI3720
aI3855
aI3858
aI3860
aI3860
aI3862
aI3870
aI3873
aI3921
aI3944
aI4003
aI4043
aI4123
aI4204
aI4279
aI4297
aI4337
aI4623
aI4626
aI4697
aI4723
aI4905
aI5014
aI5314
aI5513
aI5579
aI5672
aI5678
aI5680
aI5764
aI5819
aI5883
aI6008
aI6011
aI6015
aI6309
aI6313
aI6363
aI6631
aI6777
aI6790
aI6846
aI7044
aI7047
aI7051
aI7098
aI7120
aI7246
aI7249
aI7253
aI7324
aI7328
aI7331
aI7333
aI7335
aI7341
aI7345
aI7348
aI7353
aI7360
aI7364
aI7368
aI7379
aI7388
aI7400
aI7403
aI7461
aI7480
aI7483
aI7489
aI7491
aI7500
aI7502
aI7506
aI7509
aI7526
aI7529
aI7536
aI7544
aI7554
aI7563
aI7565
aI7568
aI7573
aI7582
aI7583
aI7586
aI7620
aI7695
aI7719
aI7882
aI7884
aI7886
aI7888
aI7897
aI8093
aI8126
aI8296
aI8297
aI8303
aI8307
assI32
(dp22
S'sig01b'
(lp23
I476
aI510
aI532
aI743
aI766
aI823
aI881
aI1180
aI1194
aI1236
aI1302
aI1689
aI1892
aI2176
aI2209
aI3581
aI3598
aI3636
aI3647
aI3664
aI3672
aI3695
aI3710
aI3740
aI3756
aI3761
aI3769
aI3796
aI3819
aI3850
aI3873
aI3885
aI3898
aI3905
aI3918
aI3930
aI3945
aI3957
aI3965
aI3974
aI3983
aI4009
aI4025
aI4062
aI4066
aI4073
aI4083
aI4092
aI4103
aI4108
aI4120
aI4126
aI4146
aI4161
aI4202
aI4227
aI4257
aI4271
aI4288
aI4300
aI4312
aI4317
aI4324
aI4350
aI4372
aI4377
aI4385
aI4397
aI4401
aI4414
aI4462
aI4504
aI4547
aI4559
aI4571
aI4591
aI4609
aI4617
aI4631
aI4651
aI4667
aI4719
aI4827
aI4871
aI4962
aI4984
aI4997
aI5019
aI5032
aI5056
aI5078
aI5098
aI5111
aI5116
aI5131
aI5141
aI5162
aI5173
aI5194
aI5202
aI5416
aI5431
aI5477
aI5479
aI5483
aI5492
aI5501
aI5504
aI5512
aI5522
aI5525
aI5529
aI5535
aI5541
aI5556
aI5563
aI5624
aI5639
aI5660
aI5671
aI5690
aI5728
aI5760
aI5811
aI5821
aI5838
aI5841
aI5844
aI5848
aI5852
aI5855
aI5872
aI5877
aI5888
aI6028
aI6039
aI6056
aI6059
aI6065
aI6070
aI6080
aI6083
aI6094
aI6111
aI6331
aI6536
aI6546
aI6550
aI6561
aI6571
aI6577
aI6597
aI6601
aI6610
aI6624
aI6645
aI6648
aI6668
aI6675
aI6688
aI6693
aI6704
aI6712
aI6715
aI6732
aI6737
aI6739
aI6773
aI6782
aI6787
aI6799
aI6812
aI6818
aI6824
aI6831
aI6836
aI6847
aI6857
aI6862
aI6872
aI6885
aI6898
aI6905
aI6911
aI6916
aI6926
aI6930
aI6933
aI6936
aI6939
aI6949
aI7050
aI7058
aI7380
aI7466
aI7496
aI7514
aI7651
aI7678
aI7708
aI7768
aI7774
aI7791
aI7799
aI7805
aI7822
aI7838
aI7845
aI7855
aI7863
aI7888
aI7897
aI7910
aI7918
aI7924
aI7951
aI7974
aI8023
aI8027
aI8036
aI8052
aI8059
aI8066
aI8072
asS'sig01a'
(lp24
I22
aI387
aI585
aI1118
aI1120
aI1122
aI1124
aI1127
aI1131
aI1134
aI1388
aI1527
aI1529
aI1532
aI1535
aI1536
aI1539
aI1540
aI1544
aI1546
aI1802
aI2102
aI2370
aI2373
aI2377
aI2379
aI2647
aI2649
aI2777
aI2779
aI2781
aI2895
aI2997
aI3032
aI3094
aI3269
aI3276
aI3278
aI3424
aI3561
aI3567
aI3576
aI3582
aI3617
aI3621
aI3630
aI3632
aI3645
aI3668
aI3797
aI3803
aI3804
aI3862
aI3934
aI3977
aI3994
aI3998
aI3999
aI4003
aI4004
aI4016
aI4018
aI4020
aI4050
aI4096
aI4157
aI4159
aI4182
aI4211
aI4256
aI4301
aI4370
aI4400
aI4687
aI4696
aI4720
aI4982
aI5031
aI5033
aI5034
aI5038
aI5040
aI5044
aI5062
aI5069
aI5084
aI5088
aI5113
aI5128
aI5153
aI5156
aI5167
aI5199
aI5200
aI5204
aI5208
aI5212
aI5215
aI5250
aI5362
aI5366
aI5370
aI5372
aI5373
aI5471
aI5518
aI5557
aI5638
aI5801
aI5816
aI5832
aI5859
aI5862
aI6012
aI6018
aI6020
aI6023
aI6036
aI6041
aI6042
aI6044
aI6050
aI6054
aI6064
aI6113
aI6130
aI6440
aI6531
aI6535
aI6628
aI6654
aI6655
aI6657
aI6680
aI6697
aI6699
aI6725
aI6767
aI6770
aI6774
aI6777
aI6788
aI6789
aI6791
aI6794
aI6796
aI6804
aI6805
aI6819
aI6859
aI6866
aI6870
aI6892
aI6913
aI6938
aI7039
aI7041
aI7044
aI7046
aI7048
aI7182
aI7257
aI7338
aI7341
aI7344
aI7361
aI7631
aI7755
aI7786
aI7808
aI7810
aI7820
aI7846
aI7977
aI7980
aI8076
assI31
(dp25
S'sig01b'
(lp26
I837
aI2184
aI2482
aI2573
aI2637
aI2679
aI2687
aI2697
aI2704
aI2730
aI2740
aI2999
aI3014
aI3064
aI3090
aI3111
aI3125
aI3141
aI3152
aI3191
aI3240
aI3250
aI3353
aI3366
aI3381
aI3405
aI3415
aI3485
aI3615
aI3665
aI3984
aI3990
aI4075
aI4161
aI4215
aI4243
aI4247
aI4253
aI4274
aI4287
aI4325
aI4436
aI4449
aI4465
aI4531
aI5061
aI5071
aI5076
aI5085
aI5094
aI5110
aI5153
aI5174
aI5197
aI5206
aI5226
aI5236
aI5244
aI5270
aI5312
aI5330
aI5377
aI5402
aI5421
aI5517
aI5532
aI5582
aI5631
aI5759
aI5767
aI5773
aI5778
aI5781
aI5791
aI5798
aI5807
aI5821
aI5844
aI5935
aI5964
aI5972
aI5982
aI5991
aI5999
aI6008
aI6019
aI6026
aI6036
aI6042
aI6057
aI6069
aI6086
aI6099
aI6108
aI6113
aI6130
aI6150
aI6154
aI6166
aI6174
aI6182
aI6194
aI6200
aI6210
aI6218
aI6238
aI6255
aI6263
aI6274
aI6341
aI6349
aI6367
aI6419
aI6428
aI6452
aI6463
aI6468
aI6480
aI6633
aI6848
aI6852
aI7025
aI7048
aI7071
aI7088
aI7106
aI7127
aI7152
aI7279
asS'sig01a'
(lp27
I422
aI591
aI627
aI844
aI938
aI955
aI1214
aI1384
aI1387
aI1390
aI1392
aI1456
aI1757
aI1761
aI1763
aI1766
aI1770
aI1772
aI1773
aI1775
aI1777
aI1780
aI1781
aI1783
aI1786
aI1990
aI1998
aI2008
aI2043
aI2051
aI2299
aI2314
aI2444
aI2488
aI2497
aI2533
aI2536
aI2666
aI2671
aI2684
aI2793
aI2819
aI2824
aI2907
aI2954
aI2981
aI2982
aI3008
aI3274
aI3387
aI3434
aI3732
aI3733
aI3735
aI3737
aI3761
aI3933
aI3986
aI3991
aI4236
aI4290
aI4293
aI4301
aI4609
aI4943
aI4946
aI5019
aI5022
aI5027
aI5028
aI5032
aI5036
aI5037
aI5043
aI5065
aI5083
aI5086
aI5301
aI5303
aI5305
aI5308
aI5329
aI5332
aI5334
aI5527
aI5600
aI5614
aI5752
aI5757
aI5794
aI5835
aI5883
aI5916
aI6016
aI6030
aI6038
aI6047
aI6105
aI6134
aI6223
aI6294
aI6313
aI6316
aI6317
aI6318
aI6320
aI6322
aI6440
aI6541
aI6795
aI6842
aI6845
aI6856
aI6858
aI6860
aI6862
aI6864
aI7032
aI7038
aI7046
aI7062
aI7066
aI7068
aI7073
aI7153
aI7218
aI7253
aI7312
aI7315
aI7346
assI30
(dp28
S'sig01b'
(lp29
I753
aI772
aI1411
aI2409
aI2452
aI2486
aI2509
aI2550
aI2577
aI2601
aI3533
aI3658
aI3787
aI3891
aI3991
aI4064
aI4107
aI4135
aI4220
aI4268
aI4291
aI4329
aI4385
aI4398
aI4408
aI4427
aI4517
aI4538
aI4555
aI4574
aI4595
aI4605
aI4615
aI4659
aI4728
aI4764
aI4945
aI4988
aI4997
aI5002
aI5009
aI5022
aI5024
aI5030
aI5037
aI5040
aI5044
aI5046
aI5049
aI5054
aI5067
aI5075
aI5082
aI5105
aI5122
aI5132
aI5261
aI5417
aI5447
aI5455
aI5467
aI5485
aI5629
aI5647
aI5657
aI5661
aI5666
aI5677
aI5683
aI5696
aI5714
aI5837
aI5853
aI6035
aI6049
aI6067
aI6091
aI6107
aI6119
aI6128
aI6137
aI6145
aI6160
aI6176
aI6201
aI6224
aI6259
aI6286
aI6316
aI6335
aI6380
aI6398
aI6417
aI6446
aI6457
aI6488
aI6519
aI6537
aI6583
aI6658
aI6708
aI6715
aI6721
aI6725
aI6732
aI6740
aI6748
aI6752
aI6764
aI6777
aI6784
aI6790
aI6807
aI6830
aI6840
aI6850
aI6860
aI6886
aI6920
aI6946
aI6964
aI7144
aI7155
aI7196
aI7199
aI7207
aI7214
aI7226
aI7240
aI7244
aI7255
aI7274
aI7284
aI7292
aI7299
aI7304
aI7311
aI7321
aI7328
aI7331
aI7342
aI7351
aI7354
aI7370
aI7542
aI7841
aI7898
aI7939
aI7970
aI7978
aI7985
aI7998
aI8107
asS'sig01a'
(lp30
I54
aI66
aI78
aI79
aI81
aI83
aI85
aI87
aI89
aI237
aI287
aI465
aI671
aI698
aI700
aI759
aI1144
aI1176
aI1304
aI1368
aI1481
aI1514
aI1568
aI1588
aI1673
aI1693
aI2112
aI2184
aI2195
aI2220
aI2270
aI2421
aI2979
aI2981
aI2984
aI2986
aI2987
aI2995
aI2996
aI2997
aI3119
aI3285
aI3376
aI3379
aI3380
aI3401
aI3503
aI3505
aI3507
aI3655
aI3924
aI4036
aI4082
aI4088
aI4091
aI4099
aI4128
aI4277
aI4552
aI4562
aI4707
aI4711
aI4903
aI4912
aI4951
aI4979
aI5014
aI5064
aI5266
aI5276
aI5278
aI5296
aI5554
aI5563
aI5571
aI5579
aI5616
aI5692
aI5694
aI5783
aI5824
aI5828
aI5831
aI5871
aI6011
aI6039
aI6051
aI6055
aI6065
aI6070
aI6082
aI6153
aI6156
aI6168
aI6195
aI6210
aI6213
aI6240
aI6350
aI6395
aI6652
aI6657
aI6702
aI6704
aI6728
aI6729
aI6743
aI6755
aI6816
aI6870
aI6893
aI6973
aI7001
aI7180
aI7192
aI7198
aI7201
aI7220
aI7285
aI7360
aI7445
aI7485
aI7506
aI7599
aI7725
aI7838
aI7840
aI7851
aI7853
aI7925
aI7937
aI7982
aI8049
aI8051
aI8176
assI29
(dp31
S'sig01b'
(lp32
I1728
aI2072
aI2457
aI2851
aI3123
aI3220
aI3691
aI3713
aI3747
aI3771
aI3810
aI3830
aI3851
aI3894
aI3910
aI3926
aI3945
aI3970
aI3988
aI4024
aI4043
aI4052
aI4069
aI4084
aI4096
aI4107
aI4113
aI4127
aI4142
aI4152
aI4156
aI4170
aI4175
aI4185
aI4193
aI4354
aI4410
aI4490
aI4533
aI4561
aI4615
aI4911
aI4999
aI5051
aI5083
aI5123
aI5204
aI5335
aI5405
aI5422
aI5435
aI5441
aI5484
aI5548
aI5557
aI5573
aI5583
aI5598
aI5602
aI5611
aI5636
aI5642
aI5654
aI5689
aI5710
aI5729
aI5745
aI5752
aI5756
aI5768
aI5783
aI5790
aI5811
aI5821
aI5836
aI6037
aI6042
aI6058
aI6471
aI6602
aI6650
aI6686
aI6709
aI6738
aI6767
aI6785
aI6800
aI6817
aI6834
aI6842
aI6861
aI6876
aI6879
aI6996
aI7234
aI7246
aI7438
aI7477
aI7486
aI7514
aI7556
aI7598
aI7762
aI7788
aI7805
aI7817
asS'sig01a'
(lp33
I88
aI126
aI128
aI191
aI219
aI332
aI478
aI500
aI522
aI553
aI560
aI562
aI564
aI606
aI726
aI820
aI822
aI856
aI1164
aI1333
aI1335
aI1343
aI1346
aI1561
aI1679
aI1760
aI1810
aI1917
aI1935
aI1938
aI1985
aI2242
aI2260
aI2426
aI2428
aI2480
aI2483
aI2504
aI2510
aI2918
aI2937
aI3064
aI3068
aI3150
aI3262
aI3294
aI3348
aI3350
aI3353
aI3473
aI3481
aI3513
aI3555
aI3659
aI3659
aI3965
aI3985
aI3989
aI4001
aI4003
aI4014
aI4035
aI4036
aI4100
aI4119
aI4141
aI4178
aI4184
aI4348
aI4595
aI4877
aI5098
aI5361
aI5541
aI5553
aI5620
aI5661
aI5849
aI5855
aI5958
aI6056
aI6059
aI6073
aI6196
aI6236
aI6240
aI6250
aI6260
aI6396
aI6453
aI6601
aI6773
aI6780
aI6793
aI6796
aI6836
aI6846
aI6886
aI6891
aI7219
aI7222
aI7227
aI7240
aI7242
aI7528
aI7636
aI7639
aI7647
aI7663
aI7793
assI28
(dp34
S'sig01b'
(lp35
I2240
aI3021
aI3052
aI3109
aI3144
aI3196
aI3365
aI3373
aI3401
aI3409
aI3421
aI3430
aI3457
aI3472
aI3477
aI3499
aI3542
aI3558
aI3598
aI3603
aI3638
aI3661
aI3674
aI3683
aI3703
aI3714
aI3725
aI3732
aI3736
aI3747
aI3757
aI3765
aI3767
aI3775
aI3780
aI3791
aI3796
aI3804
aI3897
aI3985
aI4035
aI4307
aI4383
aI4408
aI4428
aI4484
aI4516
aI4530
aI4561
aI4643
aI4655
aI4661
aI4682
aI4687
aI4693
aI4701
aI4706
aI4717
aI4722
aI4737
aI4766
aI4791
aI4880
aI4919
aI5341
aI7455
aI7816
aI7839
aI7859
aI7869
aI7898
aI7913
aI7918
aI7926
aI7940
aI7963
aI7994
aI8022
aI8077
aI8109
aI8119
aI8158
aI8185
aI8216
aI8234
aI8253
aI8268
aI8282
aI8332
aI8388
aI8614
aI8648
aI9061
aI9074
aI9080
aI9087
aI9098
aI9114
aI9127
aI9136
aI9160
aI9171
aI9454
aI9487
aI9511
aI9518
aI9561
aI9574
aI9595
aI10366
asS'sig01a'
(lp36
I140
aI242
aI279
aI332
aI374
aI613
aI981
aI1016
aI1096
aI1135
aI1284
aI1686
aI1690
aI1695
aI1696
aI1698
aI1715
aI1910
aI1922
aI1925
aI2114
aI2159
aI2162
aI2183
aI2196
aI2431
aI2454
aI2480
aI2656
aI2678
aI2691
aI2757
aI2759
aI2785
aI3024
aI3081
aI3096
aI3260
aI3290
aI3293
aI3295
aI3298
aI3300
aI3363
aI3388
aI3390
aI3397
aI3399
aI3426
aI3449
aI3465
aI3466
aI3473
aI3479
aI3481
aI3483
aI3485
aI3497
aI3591
aI3631
aI3646
aI3651
aI3659
aI3681
aI3691
aI3695
aI3758
aI3788
aI3798
aI3800
aI4073
aI4272
aI4379
aI4382
aI4385
aI4404
aI4580
aI4713
aI4861
aI4870
aI4877
aI4881
aI4902
aI4911
aI4914
aI4921
aI5016
aI5157
aI5410
aI5420
aI5430
aI5440
aI5446
aI5453
aI5455
aI5462
aI5499
aI5583
aI5677
aI5768
aI5824
aI6166
aI6203
aI6886
aI7043
aI7048
aI7050
aI7138
aI7218
aI7230
aI7458
aI7776
aI7788
aI7834
aI7867
aI7900
aI7943
aI8018
aI8033
aI8036
aI8037
aI8039
aI8041
aI8043
aI8045
aI8064
aI8506
aI8630
aI8634
aI8636
aI8874
aI8939
aI9033
aI9034
aI9073
aI9162
aI9383
aI9385
aI9387
aI9528
aI9552
aI9576
aI9849
aI9854
aI9857
aI9895
aI10231
aI10364
assI27
(dp37
S'sig01b'
(lp38
I8
aI189
aI231
aI253
aI277
aI411
aI432
aI457
aI497
aI2171
aI2180
aI2184
aI2257
aI2270
aI2301
aI3283
aI3360
aI3369
aI3382
aI3417
aI3604
aI3635
aI3902
aI3959
aI3990
aI4029
aI4043
aI4049
aI4067
aI4080
aI4092
aI4107
aI4121
aI4168
aI4176
aI4182
aI4187
aI4198
aI4202
aI4212
aI4217
aI4224
aI4231
aI4235
aI4265
aI4586
aI4703
aI4718
aI4727
aI4734
aI4746
aI4751
aI4765
aI4797
aI4813
aI4825
aI5072
aI5083
aI5094
aI5106
aI5117
aI5128
aI5145
aI5157
aI5170
aI5181
aI5190
aI5199
aI5201
aI5265
aI5275
aI5278
aI5290
aI5310
aI5318
aI5388
aI5402
aI5413
aI5420
aI5438
aI5452
aI5467
aI5481
aI5486
aI5489
aI5502
aI5509
aI5512
aI5523
aI5529
aI5532
aI5538
aI5541
aI5552
aI5562
aI5571
aI5599
aI5610
aI5645
aI5669
aI5780
aI5783
aI5787
aI5808
aI5811
aI5825
aI5843
aI5851
aI5858
aI5881
aI5927
aI5937
aI5947
aI5951
aI5969
aI5979
aI5995
aI6012
aI6016
aI6024
aI6033
aI6039
aI6051
aI6070
aI6090
aI6100
aI6116
aI6125
aI6131
aI6137
aI6140
aI6159
aI6185
aI6189
aI6214
aI6225
aI6230
aI6234
aI6253
aI6256
aI6264
aI6269
aI6277
aI6280
aI6402
aI6454
aI6516
aI6532
aI6540
aI6547
aI6553
aI6565
aI6577
aI6597
aI6624
aI6634
aI6725
aI6739
aI6916
aI6920
aI6927
aI6932
aI6947
aI6951
aI6971
aI7057
aI7073
aI7090
aI7099
aI7141
aI7158
aI7170
aI7176
aI7194
aI7206
aI7213
aI7233
aI7238
aI7251
aI7260
aI7588
aI7749
aI7986
aI7995
aI8004
aI8025
aI8176
asS'sig01a'
(lp39
I19
aI22
aI234
aI265
aI441
aI604
aI606
aI608
aI610
aI611
aI626
aI627
aI630
aI999
aI1001
aI1009
aI1010
aI1012
aI1014
aI1016
aI1018
aI1024
aI1026
aI1028
aI1131
aI1274
aI1276
aI1281
aI1283
aI1307
aI1308
aI1309
aI1745
aI1747
aI1982
aI2028
aI2031
aI2095
aI2101
aI2112
aI2200
aI2228
aI2272
aI2304
aI2306
aI2327
aI2329
aI2333
aI2340
aI2342
aI2348
aI2350
aI2352
aI2387
aI2494
aI2754
aI2794
aI3017
aI3074
aI3076
aI3078
aI3080
aI3088
aI3090
aI3487
aI3498
aI3549
aI3552
aI3563
aI3683
aI3691
aI3766
aI3908
aI3922
aI3926
aI3976
aI4006
aI4142
aI4146
aI4152
aI4156
aI4163
aI4222
aI4256
aI4276
aI4278
aI4425
aI4669
aI4762
aI4793
aI4844
aI4856
aI4860
aI4862
aI4864
aI4866
aI5071
aI5080
aI5082
aI5115
aI5118
aI5120
aI5221
aI5223
aI5246
aI5255
aI5393
aI5411
aI5426
aI5433
aI5446
aI5455
aI5461
aI5470
aI5475
aI5481
aI5492
aI5497
aI5527
aI5546
aI5548
aI5559
aI5574
aI5597
aI5709
aI5713
aI5761
aI5766
aI5799
aI5939
aI5941
aI5944
aI5945
aI5959
aI5965
aI5971
aI5974
aI5991
aI5994
aI6021
aI6026
aI6035
aI6036
aI6195
aI6218
aI6220
aI6222
aI6227
aI6239
aI6241
aI6477
aI6484
aI6497
aI6499
aI6501
aI6507
aI6510
aI6513
aI6515
aI6517
aI6519
aI6523
aI6545
aI6556
aI6560
aI6584
aI6601
aI6688
aI6731
aI6732
aI6925
aI6931
aI6945
aI6957
aI7042
aI7187
aI7247
aI7254
aI7256
aI7263
aI7485
aI7585
aI7720
aI7907
aI7985
aI7999
aI8002
aI8006
aI8115
aI8237
assI26
(dp40
S'sig01b'
(lp41
I49
aI63
aI93
aI112
aI169
aI227
aI281
aI928
aI945
aI963
aI989
aI1491
aI1593
aI1625
aI3060
aI3072
aI3107
aI3374
aI3421
aI3448
aI3609
aI3652
aI3690
aI3699
aI3757
aI3918
aI3924
aI3933
aI4055
aI4109
aI4151
aI4229
aI4427
aI4585
aI4758
aI4814
aI4854
asS'sig01a'
(lp42
I36
aI52
aI65
aI312
aI771
aI864
aI922
aI923
aI1092
aI1144
aI1628
aI1645
aI1648
aI1677
aI1890
aI1893
aI1894
aI1898
aI2024
aI2046
aI2145
aI2147
aI2149
aI2150
aI2367
aI2387
aI2425
aI2575
aI2623
aI2819
aI2822
aI3008
aI3071
aI3073
aI3079
aI3226
aI3231
aI3545
aI3555
aI3714
aI3890
aI3920
aI3928
aI3931
aI3968
aI3998
aI4126
aI4198
aI4434
aI4528
aI4529
aI4550
aI4770
aI4785
assI25
(dp43
S'sig01b'
(lp44
I1924
aI1943
aI3285
aI3335
aI3371
aI3396
aI3425
aI3439
aI3473
aI3530
aI3551
aI3572
aI3594
aI3621
aI3634
aI3642
aI3865
aI3922
aI3993
aI4041
aI4056
aI4144
aI4167
aI4352
aI4377
aI4420
aI4459
aI4564
aI4629
aI4671
aI4704
aI4724
aI4745
aI4754
aI4765
aI4774
aI4779
aI4799
aI4813
aI4817
aI4833
aI4851
aI4868
aI4878
aI4895
aI4911
aI4913
aI4919
aI4930
aI4956
aI4990
aI5007
aI5023
aI5035
aI5054
aI5099
aI5116
aI5179
aI5208
aI5220
aI5245
aI5260
aI5278
aI5336
aI5356
aI5367
aI5386
aI5394
aI5412
aI5421
aI5466
aI5729
aI5764
aI5770
aI5785
aI5802
aI5825
aI5843
aI5872
aI5883
aI5890
aI5899
aI5912
aI5935
aI5952
aI6046
aI6124
aI6155
aI6448
aI6464
aI6508
aI6528
aI6551
aI6587
aI6635
aI7026
aI7233
aI7260
aI7276
aI7430
aI7466
aI7480
aI7484
aI7491
aI7501
aI7515
aI7520
aI7526
aI7533
aI7544
aI7562
aI7575
aI7586
aI7717
asS'sig01a'
(lp45
I37
aI91
aI407
aI462
aI569
aI837
aI969
aI975
aI1008
aI1010
aI1183
aI1279
aI1332
aI1371
aI1555
aI1673
aI1689
aI1705
aI1707
aI1726
aI1880
aI1888
aI1893
aI1903
aI2162
aI2166
aI2168
aI2170
aI2326
aI2475
aI2478
aI2562
aI2574
aI2772
aI2882
aI2925
aI2927
aI2992
aI3355
aI3358
aI3360
aI3414
aI3554
aI3679
aI3681
aI3794
aI3933
aI4021
aI4064
aI4290
aI4393
aI4516
aI4644
aI4646
aI4652
aI4654
aI4657
aI4712
aI4730
aI4768
aI4825
aI4825
aI4904
aI4917
aI4978
aI4996
aI5053
aI5091
aI5147
aI5233
aI5238
aI5289
aI5426
aI5561
aI5597
aI5609
aI5636
aI5753
aI5757
aI5788
aI5794
aI5798
aI5824
aI5838
aI5842
aI5854
aI5858
aI5863
aI5882
aI5911
aI5927
aI5936
aI5938
aI5941
aI6285
aI6318
aI6320
aI6429
aI6535
aI6540
aI6557
aI6601
aI6604
aI6651
aI6686
aI6687
aI6763
aI6910
aI7057
aI7075
aI7116
aI7229
aI7239
aI7242
aI7244
aI7421
aI7431
aI7435
aI7446
aI7451
aI7456
aI7468
aI7475
aI7487
aI7514
aI7518
aI7538
aI7547
aI7551
aI7558
aI7559
aI7572
aI7580
aI7590
aI7653
aI7702
aI7752
aI7760
aI7841
aI7977
aI7978
aI7990
assI24
(dp46
S'sig01b'
(lp47
I214
aI241
aI498
aI555
aI600
aI634
aI1275
aI1281
aI1295
aI2946
aI2959
aI3000
aI3006
aI3022
aI3033
aI3052
aI3100
aI3158
aI3225
aI3349
aI3605
aI3634
aI3665
aI3689
aI3763
aI3775
aI3781
aI3873
aI3892
aI3914
aI3930
aI3945
aI3958
aI3972
aI3975
aI3992
aI4013
aI4030
aI4048
aI4076
aI4104
aI4130
aI4140
aI4160
aI4184
aI4206
aI4237
aI4258
aI4275
aI4282
aI4285
aI4295
aI4298
aI4305
aI4309
aI4320
aI4325
aI4338
aI4340
aI4353
aI4371
aI4428
aI4434
aI4439
aI4446
aI4456
aI4477
aI4484
aI4491
aI4508
aI4511
aI4517
aI4524
aI4529
aI4534
aI4540
aI4548
aI4550
aI4566
aI4615
aI4633
aI4637
aI4642
aI4656
aI4675
aI4702
aI4706
aI4778
aI4788
aI4813
aI4866
aI4877
aI4896
aI4910
aI4921
aI4927
aI4933
aI4940
aI4949
aI4955
aI4960
aI4964
aI4967
aI4981
aI4990
aI5003
aI5009
aI5015
aI5023
aI5045
aI5082
aI5085
aI5093
aI5107
aI5116
aI5139
aI5303
aI5571
aI5584
aI5609
aI5903
aI5915
aI5933
aI5972
aI6061
aI6344
aI7108
aI7149
aI7179
aI7192
aI7226
aI7239
aI7252
aI7266
aI7294
aI7302
aI7372
aI7395
aI7398
aI7419
aI7426
aI7434
aI7441
aI7445
aI7469
aI7481
aI7493
aI7510
aI7533
asS'sig01a'
(lp48
I215
aI731
aI1550
aI1632
aI1642
aI1650
aI1653
aI1654
aI1656
aI1658
aI1660
aI1667
aI1836
aI1893
aI1953
aI1957
aI1995
aI1998
aI2095
aI2188
aI2246
aI2282
aI2285
aI2294
aI2409
aI2412
aI2464
aI2475
aI2478
aI2702
aI2719
aI2734
aI2745
aI2867
aI2869
aI2908
aI2910
aI2913
aI2923
aI2931
aI3062
aI3064
aI3066
aI3119
aI3136
aI3266
aI3422
aI3427
aI3723
aI3831
aI3866
aI3867
aI3878
aI3881
aI3887
aI3889
aI3891
aI3937
aI4037
aI4041
aI4221
aI4259
aI4266
aI4267
aI4270
aI4297
aI4300
aI4312
aI4328
aI4454
aI4461
aI4462
aI4464
aI4466
aI4486
aI4504
aI4588
aI4715
aI4719
aI4721
aI4724
aI4744
aI4903
aI4905
aI4977
aI5005
aI5016
aI5041
aI5051
aI5130
aI5140
aI5152
aI5174
aI5438
aI5557
aI5563
aI5759
aI5816
aI5876
aI5911
aI5930
aI6059
aI6064
aI6075
aI6319
aI6322
aI6323
aI6326
aI6327
aI6523
aI6573
aI6632
aI6840
aI6927
aI7031
aI7092
aI7097
aI7357
aI7375
aI7377
aI7378
aI7380
aI7498
aI7513
aI7515
aI7532
assI23
(dp49
S'sig01b'
(lp50
I483
aI754
aI776
aI838
aI851
aI863
aI883
aI914
aI1119
aI1128
aI1145
aI3251
aI3299
aI3311
aI3318
aI3330
aI3342
aI3347
aI3353
aI3360
aI3375
aI3379
aI3390
aI3429
aI3452
aI3461
aI3473
aI3501
aI3541
aI3568
aI3605
aI3653
aI3707
aI3718
aI3750
aI3768
aI3787
aI3801
aI3826
aI3841
aI3853
aI3867
aI3882
aI3906
aI3952
aI3974
aI3984
aI3992
aI4001
aI4062
aI4078
aI4111
aI4121
aI4142
aI4159
aI4167
aI4173
aI4188
aI4197
aI4201
aI4207
aI4219
aI4223
aI4227
aI4243
aI4248
aI4250
aI4270
aI4292
aI4310
aI4441
aI4544
aI4562
aI4573
aI4714
aI4721
aI4734
aI4738
aI4753
aI4762
aI4770
aI4786
aI4800
aI4813
aI4827
aI4831
aI4846
aI4865
aI4889
aI4895
aI4926
aI5016
aI5108
aI5261
aI5288
aI5381
aI5394
aI5402
aI5410
aI5415
aI5433
aI5446
aI5450
aI5456
aI5466
aI5494
aI5531
aI5535
aI5538
aI5547
aI5561
aI5728
aI5744
aI5755
aI5771
aI5781
aI5785
aI5790
aI5803
aI5811
aI5818
aI5839
aI5850
aI5859
aI5876
aI5889
aI5898
aI6120
aI6132
aI6136
aI6160
aI6175
aI6181
aI6188
aI6199
aI6211
aI6215
aI6219
aI6226
aI6240
aI6255
aI6262
aI6265
aI6299
aI6307
aI6314
aI6318
aI6335
aI6342
aI6361
aI6589
aI6598
aI6604
aI6624
aI6630
aI6633
aI6644
aI6648
aI6650
aI6661
aI6665
aI6693
aI6719
aI6757
aI6769
aI6782
aI6816
aI6818
aI6822
aI6834
aI6840
aI6846
aI6850
aI6856
aI6875
aI6879
aI6961
aI6976
aI6986
aI6991
aI7033
aI7036
aI7069
aI7078
aI7089
aI7094
aI7193
aI7256
aI7276
aI7313
aI7330
aI7348
aI7355
aI7364
aI7380
aI7410
aI7414
aI7430
aI7433
aI7438
aI7454
aI7462
aI7480
aI7495
aI7500
aI7503
aI7520
aI7529
aI7541
aI7549
aI7554
aI7557
aI7561
aI7576
aI7654
aI7667
aI7679
aI7685
aI7692
aI7700
aI7715
aI7719
aI7721
asS'sig01a'
(lp51
I10
aI18
aI23
aI128
aI178
aI494
aI673
aI761
aI1067
aI1069
aI1071
aI1073
aI1076
aI1077
aI1079
aI1095
aI1195
aI1223
aI1253
aI1298
aI1387
aI1474
aI1522
aI1529
aI1581
aI1634
aI1679
aI1750
aI1764
aI1847
aI1966
aI2189
aI2190
aI2193
aI2195
aI2197
aI2198
aI2200
aI2202
aI2205
aI2206
aI2209
aI2262
aI2363
aI2459
aI2483
aI2516
aI2543
aI2628
aI2706
aI2738
aI2741
aI2743
aI2745
aI2747
aI2749
aI2831
aI2869
aI2968
aI3014
aI3148
aI3164
aI3187
aI3231
aI3241
aI3243
aI3245
aI3252
aI3280
aI3283
aI3290
aI3315
aI3346
aI3366
aI3371
aI3381
aI3383
aI3393
aI3395
aI3398
aI3400
aI3402
aI3439
aI3490
aI3587
aI3589
aI3638
aI3657
aI3672
aI3725
aI3871
aI3874
aI4161
aI4183
aI4189
aI4191
aI4203
aI4297
aI4299
aI4548
aI4551
aI4553
aI4693
aI4703
aI4705
aI4758
aI4792
aI4836
aI4840
aI5020
aI5023
aI5025
aI5048
aI5165
aI5218
aI5249
aI5256
aI5270
aI5276
aI5287
aI5413
aI5421
aI5500
aI5558
aI5631
aI5730
aI5742
aI5748
aI5750
aI5762
aI5780
aI5825
aI5863
aI5893
aI5992
aI6112
aI6123
aI6124
aI6141
aI6143
aI6148
aI6151
aI6156
aI6158
aI6169
aI6170
aI6173
aI6174
aI6179
aI6181
aI6183
aI6188
aI6190
aI6194
aI6203
aI6205
aI6225
aI6230
aI6233
aI6256
aI6264
aI6267
aI6271
aI6272
aI6274
aI6575
aI6579
aI6581
aI6586
aI6590
aI6593
aI6595
aI6606
aI6617
aI6619
aI6634
aI6660
aI6735
aI6792
aI6793
aI6794
aI6797
aI6801
aI6809
aI6810
aI6813
aI6820
aI6825
aI6829
aI6829
aI6836
aI6844
aI6863
aI6877
aI6966
aI7015
aI7020
aI7029
aI7040
aI7042
aI7043
aI7050
aI7051
aI7059
aI7061
aI7074
aI7085
aI7164
aI7301
aI7311
aI7312
aI7313
aI7316
aI7319
aI7334
aI7337
aI7345
aI7369
aI7403
aI7422
aI7439
aI7456
aI7474
aI7535
aI7536
aI7544
aI7563
aI7580
aI7594
aI7598
aI7638
aI7641
aI7643
aI7645
aI7649
aI7653
aI7657
aI7660
aI7670
aI7675
aI7713
aI7731
assI22
(dp52
S'sig01b'
(lp53
I86
aI195
aI435
aI473
aI497
aI553
aI569
aI756
aI1286
aI1848
aI1864
aI1888
aI1908
aI1921
aI1945
aI1963
aI1982
aI2608
aI3825
aI3839
aI3845
aI3864
aI3879
aI3884
aI3899
aI3908
aI3914
aI3919
aI3937
aI3992
aI4008
aI4043
aI4269
aI4363
aI4601
aI4670
aI4687
aI4718
aI4745
aI4761
aI4782
aI4793
aI4807
aI4822
aI4874
aI4915
aI4988
aI5022
aI5039
aI5051
aI5059
aI5068
aI5076
aI5084
aI5089
aI5110
aI5125
aI5184
aI5209
aI5218
aI5230
aI5272
aI5295
aI5312
aI5319
aI5340
aI5393
aI5424
aI5455
aI5469
aI5482
aI5488
aI5497
aI5511
aI5543
aI5562
aI5565
aI5589
aI5873
aI5915
aI5937
aI5947
aI5955
aI5977
aI5991
aI5997
aI6009
aI6014
aI6019
aI6027
aI6032
aI6043
aI6050
aI6058
aI6073
aI6095
aI6113
aI6143
aI6154
aI6167
aI6171
aI6179
aI6188
aI6195
aI6207
aI6217
aI6220
aI6222
aI6226
aI6237
aI6250
aI6294
aI6303
aI6313
aI6319
aI6327
aI6343
aI6359
aI6370
aI6381
aI6387
aI6553
aI6562
aI6574
aI6585
aI6600
aI6617
aI6626
aI6634
aI6642
aI6649
aI6654
aI6671
aI6673
aI6677
aI6685
aI6700
aI6703
aI6708
aI6713
aI6716
aI6880
aI6890
aI6911
aI6919
aI6927
aI6945
aI7001
aI7010
aI7024
aI7037
aI7061
aI7084
aI7102
aI7129
aI7136
aI7148
aI7159
aI7167
aI7179
aI7191
aI7205
aI7459
aI7494
aI7572
aI7577
aI7584
aI7588
aI7596
aI7670
aI7771
aI7801
aI7995
aI8010
aI8202
aI8223
aI8228
asS'sig01a'
(lp54
I15
aI20
aI22
aI24
aI26
aI29
aI31
aI67
aI151
aI180
aI213
aI224
aI381
aI398
aI492
aI810
aI933
aI1001
aI1062
aI1230
aI1417
aI1432
aI1482
aI1607
aI1820
aI1840
aI2304
aI2312
aI2326
aI2332
aI2337
aI2338
aI2340
aI2342
aI2555
aI2557
aI2699
aI2748
aI2764
aI2863
aI2865
aI2898
aI3012
aI3044
aI3129
aI3135
aI3246
aI3291
aI3293
aI3311
aI3432
aI3443
aI3446
aI3512
aI3555
aI3812
aI3816
aI3822
aI3910
aI4047
aI4151
aI4178
aI4321
aI4552
aI4885
aI4939
aI4949
aI5024
aI5087
aI5095
aI5203
aI5310
aI5320
aI5410
aI5536
aI5608
aI5806
aI5880
aI5882
aI5885
aI5892
aI5892
aI5898
aI5901
aI5904
aI6002
aI6036
aI6086
aI6098
aI6100
aI6103
aI6109
aI6144
aI6191
aI6272
aI6287
aI6299
aI6305
aI6325
aI6343
aI6346
aI6352
aI6354
aI6400
aI6407
aI6409
aI6510
aI6540
aI6549
aI6575
aI6591
aI6636
aI6660
aI6662
aI6675
aI6718
aI6724
aI6862
aI6865
aI6874
aI6876
aI6929
aI6948
aI7004
aI7073
aI7073
aI7164
aI7208
aI7322
aI7349
aI7438
aI7490
aI7528
aI7545
aI7631
aI7773
aI7777
aI7785
aI7787
aI7798
aI7970
aI8073
aI8211
aI8237
aI8516
assI21
(dp55
S'sig01b'
(lp56
I69
aI138
aI689
aI2005
aI2877
aI3086
aI3568
aI3834
aI3895
aI4304
aI4365
aI4401
aI4438
aI4443
aI4453
aI4458
aI4468
aI4472
aI4479
aI4483
aI4488
aI4493
aI4509
aI4517
aI4527
aI4626
aI4740
aI4749
aI4772
aI4780
aI4791
aI4802
aI4820
aI4829
aI4848
aI4859
aI4865
aI4878
aI4906
aI4924
aI4928
aI4951
aI5049
aI5052
aI5059
aI5070
aI5078
aI5092
aI5122
aI5129
aI5145
aI5152
aI5154
aI5157
aI5178
aI5186
aI5200
aI5413
aI5436
aI5450
aI5488
aI5541
aI5572
aI5598
aI5615
aI5625
aI5635
aI5642
aI5648
aI5657
aI5669
aI5672
aI5675
aI5688
aI5697
aI5714
aI5809
aI5948
aI5959
aI6202
aI6211
aI6222
aI6244
aI6349
aI6375
aI6441
aI6448
aI6463
aI6467
aI6486
aI6487
aI6516
aI6572
aI6576
aI6582
aI6592
aI6599
aI6607
aI6613
aI6618
aI6622
aI6630
aI6648
aI6680
aI6694
aI6788
aI6988
aI7020
aI7027
aI7053
aI7059
aI7065
aI7083
aI7108
aI7120
aI7134
aI7156
aI7168
aI7187
aI7192
aI7197
aI7207
aI7228
aI7303
aI7319
aI7329
aI7338
aI7391
aI7406
aI7414
aI7432
aI7438
aI7442
aI7446
aI7454
aI7462
aI7470
aI7661
aI7665
aI7669
aI7680
aI7689
aI7719
aI7738
aI7743
aI7751
aI7761
aI7775
aI7789
aI7798
aI7807
aI7816
aI7837
aI7847
aI7865
aI7879
aI7883
aI7999
aI8004
aI8011
aI8019
aI8022
aI8029
aI8038
aI8042
aI8059
aI8067
aI8072
aI8082
aI8090
aI8107
aI8112
aI8118
aI8151
aI8221
aI8240
aI8290
asS'sig01a'
(lp57
I11
aI273
aI278
aI281
aI284
aI285
aI289
aI298
aI643
aI834
aI836
aI838
aI840
aI842
aI844
aI846
aI1193
aI1200
aI1268
aI1269
aI1270
aI1272
aI1440
aI1443
aI1445
aI1655
aI1658
aI1765
aI1837
aI1938
aI1948
aI1971
aI1975
aI1986
aI1995
aI1997
aI2000
aI2003
aI2012
aI2200
aI2257
aI2342
aI2383
aI2420
aI2536
aI2709
aI2712
aI2716
aI2718
aI2720
aI2726
aI2807
aI2962
aI3012
aI3207
aI3211
aI3217
aI3228
aI3233
aI3367
aI3432
aI3435
aI3614
aI3639
aI3640
aI3668
aI3756
aI3805
aI3841
aI4021
aI4036
aI4174
aI4182
aI4200
aI4676
aI4764
aI4767
aI4768
aI4771
aI4777
aI4782
aI4784
aI4787
aI4789
aI4792
aI4795
aI4799
aI4809
aI4810
aI4815
aI4822
aI4831
aI4889
aI4920
aI4922
aI4934
aI4935
aI5035
aI5080
aI5107
aI5109
aI5112
aI5121
aI5136
aI5202
aI5242
aI5364
aI5378
aI5380
aI5477
aI5557
aI5560
aI5561
aI5564
aI5574
aI5577
aI5579
aI5582
aI5583
aI5584
aI5589
aI5600
aI5604
aI5609
aI5610
aI5611
aI5616
aI5618
aI5630
aI5646
aI5658
aI5659
aI5670
aI5682
aI5682
aI5685
aI5699
aI5712
aI5743
aI5945
aI6109
aI6246
aI6247
aI6374
aI6421
aI6423
aI6424
aI6426
aI6428
aI6429
aI6435
aI6437
aI6438
aI6440
aI6442
aI6444
aI6446
aI6458
aI6474
aI6479
aI6492
aI6495
aI6558
aI6561
aI6566
aI6575
aI6665
aI6665
aI6752
aI6954
aI6961
aI6968
aI7125
aI7144
aI7149
aI7239
aI7291
aI7310
aI7398
aI7401
aI7421
aI7426
aI7430
aI7434
aI7439
aI7546
aI7583
aI7675
aI7677
aI7679
aI7683
aI7707
aI7882
aI7904
aI8285
aI8297
aI8299
assI20
(dp58
S'sig01b'
(lp59
I1073
aI2946
aI2953
aI2959
aI2961
aI2971
aI2982
aI2992
aI3010
aI3019
aI3035
aI3041
aI3047
aI3056
aI3064
aI3190
aI3241
aI3268
aI3392
aI3456
aI3462
aI3470
aI3477
aI3482
aI3494
aI3500
aI3505
aI3510
aI3518
aI3523
aI3535
aI3545
aI3551
aI3610
aI3646
aI3670
aI3726
aI3809
aI3827
aI3961
aI3981
aI4002
aI4025
aI4029
aI4047
aI4055
aI4064
aI4072
aI4102
aI4280
aI4311
aI4330
aI4337
aI4343
aI4365
aI4386
aI4415
aI4475
aI4544
aI4567
aI4594
aI4606
aI4621
aI4630
aI4683
aI4697
aI4717
aI4731
aI4763
aI4791
aI5081
aI5107
aI5119
aI5140
aI5246
aI5263
aI5280
aI5286
aI5294
aI5302
aI5310
aI5320
aI5332
aI5338
aI5342
aI5363
aI5596
aI5605
aI5615
aI5623
aI5643
aI5649
aI5654
aI5658
aI5664
aI5668
aI5674
aI5685
aI5795
aI6168
aI6199
aI6290
aI6320
aI6342
aI6388
aI6406
aI6422
aI6452
aI6472
aI6494
aI6651
aI8489
aI8515
aI8531
aI8556
aI9513
aI9532
aI9544
aI9561
aI9572
aI9593
aI9604
aI9616
aI9629
aI9885
aI10004
aI10064
aI10111
aI10161
aI10188
aI10940
aI10963
aI11057
aI11228
aI11381
aI11393
aI11989
aI12081
aI12158
aI12256
aI12281
asS'sig01a'
(lp60
I23
aI147
aI284
aI463
aI478
aI494
aI606
aI783
aI1077
aI1084
aI1092
aI1093
aI1132
aI1311
aI1341
aI1485
aI1547
aI1591
aI1617
aI1622
aI1624
aI1625
aI1627
aI1629
aI1631
aI1633
aI1635
aI1646
aI1648
aI1859
aI1992
aI2050
aI2218
aI2253
aI2307
aI2310
aI2313
aI2315
aI2317
aI2330
aI2583
aI2611
aI2730
aI2731
aI2794
aI2797
aI2897
aI2914
aI2918
aI2920
aI2954
aI2988
aI3002
aI3049
aI3290
aI3435
aI3487
aI3739
aI3770
aI3772
aI3775
aI3930
aI3945
aI3946
aI3950
aI3953
aI3957
aI3964
aI3966
aI3968
aI3971
aI3979
aI3982
aI3985
aI3988
aI3998
aI3999
aI4005
aI4011
aI4019
aI4021
aI4032
aI4034
aI4041
aI4066
aI4068
aI4247
aI4307
aI4327
aI4541
aI4557
aI4780
aI4782
aI4883
aI4885
aI4909
aI4976
aI5044
aI5132
aI5177
aI5248
aI5251
aI5258
aI5410
aI5445
aI5463
aI5541
aI5542
aI5546
aI5550
aI5583
aI5585
aI5587
aI5590
aI5591
aI5592
aI5600
aI5609
aI5612
aI5633
aI5639
aI5790
aI5794
aI5797
aI5916
aI5949
aI6061
aI6128
aI6291
aI6293
aI6297
aI6305
aI6316
aI6361
aI6579
aI6648
aI6650
aI6652
aI6654
aI6656
aI6662
aI6695
aI6738
aI6834
aI6955
aI6957
aI7171
aI7304
aI7464
aI7467
aI7469
aI7471
aI7473
aI7475
aI7477
aI7479
aI7481
aI7497
aI7499
aI7634
aI7702
aI7921
aI7943
aI8221
aI8339
aI8371
aI8483
aI8533
aI8539
aI9218
aI9342
aI9427
aI9462
aI9571
aI9695
aI9930
aI9933
aI10126
aI10131
aI10537
aI10546
aI10618
aI10641
aI10769
aI10784
aI10789
aI11882
aI12278
assI19
(dp61
S'sig01b'
(lp62
I466
aI527
aI2899
aI3132
aI3455
aI3464
aI3477
aI3484
aI3494
aI3510
aI3517
aI3521
aI3531
aI3539
aI3545
aI3551
aI3560
aI3573
aI3602
aI3626
aI3636
aI3648
aI3661
aI3670
aI3692
aI3710
aI3723
aI3728
aI3742
aI3757
aI3793
aI3821
aI3838
aI3864
aI3870
aI3892
aI3925
aI3935
aI3951
aI3966
aI3977
aI3989
aI3998
aI4009
aI4019
aI4031
aI4046
aI4065
aI4096
aI4128
aI4179
aI4245
aI4314
aI4348
aI4383
aI4433
aI4469
aI4519
aI4611
aI5649
aI5684
aI6550
aI6946
aI6971
aI7432
aI7482
aI7501
aI7544
aI7709
aI7759
aI7889
aI8122
aI8276
aI8293
aI8320
aI8352
aI8367
aI8383
aI8713
aI8729
aI8741
aI8748
aI8772
aI8779
aI8789
aI8868
aI8890
aI9289
aI9405
aI9435
aI9450
aI9457
aI9483
aI9494
aI9504
aI9713
aI9958
aI10204
aI10220
aI10229
asS'sig01a'
(lp63
I60
aI63
aI508
aI587
aI589
aI593
aI595
aI821
aI842
aI1009
aI1011
aI1013
aI1015
aI1017
aI1021
aI1031
aI1267
aI1330
aI1495
aI1531
aI1611
aI1642
aI1645
aI1647
aI1651
aI1652
aI1654
aI1656
aI1973
aI2038
aI2054
aI2060
aI2062
aI2176
aI2366
aI2482
aI2501
aI2505
aI2810
aI2813
aI2840
aI3173
aI3196
aI3200
aI3203
aI3204
aI3206
aI3208
aI3211
aI3213
aI3218
aI3372
aI3452
aI3461
aI3469
aI3489
aI3503
aI3575
aI3587
aI3834
aI3835
aI3856
aI3873
aI3905
aI4111
aI4362
aI4512
aI4743
aI4746
aI4748
aI4780
aI4796
aI4853
aI4867
aI4909
aI4968
aI4971
aI5075
aI5078
aI5256
aI5257
aI5259
aI5301
aI5305
aI5307
aI5309
aI5311
aI5315
aI5317
aI5319
aI5324
aI5352
aI5366
aI5578
aI5728
aI5765
aI5806
aI5808
aI6045
aI6056
aI6127
aI6341
aI6421
aI6496
aI6547
aI6825
aI7324
aI7330
aI7332
aI7334
aI7336
aI7338
aI7339
aI7341
aI7351
aI7353
aI7355
aI7359
aI7548
aI7603
aI7656
aI7819
aI8043
aI8133
aI8190
aI8193
aI8216
aI8314
aI8341
aI8342
aI8374
aI8425
aI8610
aI8616
aI8620
aI8624
aI8626
aI8628
aI8676
aI8830
aI9236
aI9293
aI9296
aI9312
aI9442
aI9448
aI9453
aI9520
aI9809
aI9835
aI9861
aI10133
aI10141
aI10184
aI10188
aI10191
aI10252
assI18
(dp64
S'sig01b'
(lp65
I113
aI459
aI1188
aI1969
aI2916
aI3572
aI3581
aI3592
aI3595
aI3611
aI3615
aI3623
aI3630
aI3640
aI3644
aI3651
aI3660
aI3667
aI3678
aI3684
aI3688
aI3696
aI3961
aI4015
aI4038
aI4052
aI4165
aI4210
aI4240
aI4262
aI4279
aI4293
aI4312
aI4334
aI4350
aI4357
aI4368
aI4377
aI4389
aI4412
aI4423
aI4435
aI4459
aI4470
aI4475
aI4486
aI4492
aI4499
aI4508
aI4529
aI4536
aI4546
aI4569
aI4576
aI4587
aI4596
aI4606
aI4614
aI4622
aI4633
aI4766
aI4788
aI4802
aI4895
aI4936
aI4954
aI4978
aI5011
aI5032
aI7759
aI7782
aI7794
aI7857
aI8188
aI9048
aI9085
aI9093
aI9123
asS'sig01a'
(lp66
I14
aI86
aI259
aI1082
aI1186
aI1211
aI1269
aI1963
aI2015
aI2033
aI2036
aI2258
aI2446
aI2494
aI2498
aI2603
aI2676
aI2712
aI2865
aI2872
aI2876
aI2953
aI3401
aI3405
aI3430
aI3573
aI3576
aI3580
aI3668
aI3687
aI3690
aI3865
aI3866
aI3872
aI4014
aI4157
aI4251
aI4255
aI4256
aI4264
aI4269
aI4281
aI4328
aI4426
aI4433
aI4460
aI4495
aI4505
aI4518
aI4519
aI4538
aI4560
aI4594
aI4625
aI4637
aI4770
aI4903
aI4910
aI4916
aI4973
aI5051
aI5161
aI5164
aI5167
aI5176
aI5219
aI5230
aI5269
aI5270
aI5282
aI5404
aI5624
aI5751
aI5865
aI5995
aI6038
aI6040
aI6045
aI6047
aI6088
aI6092
aI6664
aI6902
aI6998
aI7008
aI7012
aI7028
aI7399
aI7693
aI7724
aI7992
aI8028
aI8361
aI8662
aI8679
aI8688
aI8917
aI9067
aI9145
assI17
(dp67
S'sig01b'
(lp68
I44
aI518
aI776
aI800
aI974
aI1015
aI1041
aI1064
aI1082
aI1130
aI1140
aI1842
aI2287
aI2882
aI2919
aI3046
aI3060
aI3074
aI3085
aI3105
aI3117
aI3137
aI3157
aI3175
aI3178
aI3186
aI3200
aI3243
aI3289
aI3491
aI3756
aI3766
aI3807
aI3834
aI3900
aI3915
aI3921
aI3925
aI3931
aI3961
aI3994
aI4001
aI4011
aI4014
aI4030
aI4032
aI4045
aI4064
aI4077
aI4085
aI4096
aI4102
aI4120
aI4123
aI4136
aI4139
aI4157
aI4172
aI4188
aI4201
aI4242
aI4289
aI4350
aI4378
aI4389
aI4447
aI4467
aI4494
aI4496
aI4511
aI4520
aI4536
aI4558
aI4599
aI4606
aI4612
aI4616
aI4623
aI4628
aI4636
aI4644
aI4648
aI4671
aI4754
aI4903
aI4924
aI5039
aI5055
aI5324
aI5346
aI5419
aI5466
aI5529
aI5597
aI5629
aI5644
aI5663
aI5690
aI5712
aI5714
aI5745
aI5770
aI5777
aI5788
aI5793
aI5803
aI5824
aI5837
aI5943
aI5954
aI5974
aI5988
aI6271
aI6283
aI6408
aI6415
aI6440
aI6455
aI6493
aI6511
aI6526
aI6542
aI6548
aI6551
aI6559
aI6569
aI6574
aI6578
aI6588
aI6592
aI6598
aI6613
aI6619
aI6671
aI6713
aI6735
aI6748
aI6751
aI6759
aI6773
aI6784
aI6790
aI6804
aI7035
aI7434
aI7458
aI7465
aI7511
aI7521
aI7524
aI7536
aI7539
aI7544
aI7555
aI7574
aI7592
aI7612
aI7619
aI7669
aI7683
aI7718
asS'sig01a'
(lp69
I22
aI128
aI361
aI696
aI747
aI786
aI916
aI1074
aI1104
aI1119
aI1128
aI1162
aI1326
aI1667
aI1696
aI1974
aI1978
aI2036
aI2103
aI2223
aI2224
aI2225
aI2291
aI2513
aI2585
aI2778
aI2798
aI2802
aI2804
aI2805
aI2808
aI2811
aI2813
aI2891
aI2958
aI2960
aI2995
aI3495
aI3775
aI3779
aI3782
aI3790
aI3832
aI3912
aI3940
aI3949
aI4053
aI4128
aI4146
aI4163
aI4165
aI4483
aI4485
aI4560
aI4581
aI4653
aI4656
aI4878
aI4885
aI4888
aI4890
aI4892
aI5049
aI5051
aI5053
aI5208
aI5232
aI5241
aI5303
aI5457
aI5496
aI5667
aI5671
aI5807
aI5961
aI6229
aI6422
aI6425
aI6427
aI6530
aI6533
aI6556
aI6584
aI6590
aI6701
aI6703
aI6708
aI6711
aI6719
aI6721
aI6792
aI6905
aI6908
aI6973
aI7050
aI7133
aI7409
aI7461
aI7473
aI7475
aI7494
aI7543
aI7649
assI16
(dp70
S'sig01b'
(lp71
I40
aI87
aI92
aI1500
aI2047
aI2532
aI3017
aI3553
aI3569
aI3584
aI3606
aI3614
aI3618
aI3631
aI3650
aI3657
aI3662
aI3669
aI3686
aI3879
aI3957
aI3996
aI4014
aI4039
aI4085
aI4094
aI4109
aI4128
aI4170
aI4339
aI4347
aI4359
aI4369
aI4372
aI4408
aI4433
aI4460
aI4471
aI4502
aI4541
aI4560
aI4579
aI4588
aI4594
aI4609
aI4617
aI4623
aI4638
aI4643
aI4716
asS'sig01a'
(lp72
I89
aI93
aI95
aI96
aI97
aI114
aI252
aI255
aI492
aI592
aI616
aI631
aI694
aI838
aI847
aI878
aI1000
aI1054
aI1071
aI1074
aI1089
aI1098
aI1104
aI1455
aI1510
aI1544
aI1760
aI1762
aI1764
aI1766
aI1768
aI1770
aI2076
aI2080
aI2149
aI2285
aI2294
aI2400
aI2402
aI2411
aI2413
aI2568
aI2733
aI2738
aI2752
aI2818
aI2917
aI3085
aI3099
aI3101
aI3103
aI3105
aI3106
aI3109
aI3111
aI3113
aI3116
aI3118
aI3120
aI3352
aI3370
aI3466
aI3540
aI3544
aI3547
aI3552
aI3560
aI3562
aI3567
aI3571
aI3591
aI3593
aI3596
aI3600
aI3610
aI3642
aI3644
aI3652
aI3671
aI3677
aI3683
aI3685
aI3688
aI3723
aI3848
aI3858
aI3893
aI4044
aI4045
aI4222
aI4355
aI4357
aI4554
aI4557
aI4712
aI4722
assI15
(dp73
S'sig01b'
(lp74
I145
aI2664
aI4564
aI4587
aI4607
aI4621
aI4629
aI4647
aI4661
aI4670
aI4680
aI4692
aI4703
aI4714
aI4721
aI4735
aI4746
aI4757
aI4775
aI4787
aI4804
aI4813
aI4816
aI4825
aI4832
aI4838
aI4848
aI4857
aI4864
aI4873
aI4893
aI4897
aI4907
aI4914
aI4918
aI4924
aI4933
aI4937
aI5111
aI5152
aI5330
aI5362
aI5432
aI5443
aI5450
aI5457
aI5469
aI5481
aI5486
aI5488
aI5494
aI5499
aI5509
aI5515
aI5522
aI5528
aI5535
aI5559
aI5643
aI5662
aI5674
aI5697
aI5713
aI5730
aI5743
aI5750
aI5767
aI5772
aI5779
aI5789
aI5798
aI5807
aI5811
aI5818
aI5830
aI5876
aI5933
aI5954
aI5975
aI5983
aI6012
aI6015
aI6033
aI6053
aI6057
aI6061
aI6065
aI6072
aI6091
aI6098
aI6107
aI6112
aI6119
aI6127
aI6130
aI6132
aI6137
aI6143
aI6158
aI6186
aI6258
aI6280
aI6288
aI6318
aI6324
aI6334
aI6350
aI6381
aI6477
aI6498
aI6511
aI6535
aI6615
aI6633
aI6645
aI6656
aI6687
aI6692
aI6700
aI6729
aI6732
aI6738
aI6755
aI6759
aI6769
aI6776
aI6786
aI6794
aI6805
aI6822
aI6831
aI6864
aI6894
aI6906
aI6915
aI6929
aI6935
aI6957
aI7052
aI7065
aI7116
aI7502
aI7525
aI7539
aI7549
aI7800
aI7930
aI7949
aI7965
aI7977
aI7994
aI8055
aI8063
aI8069
aI8072
aI8080
aI8083
aI8091
aI8094
aI8099
aI8106
aI8110
aI8117
aI8127
aI8134
aI8140
aI8154
aI8165
aI8193
aI8257
aI8287
aI8454
aI8485
aI8496
aI8502
aI8513
aI8527
aI8533
aI8547
aI8554
aI8570
aI8593
aI8652
aI8817
aI8862
aI8877
aI8893
aI8915
aI8939
aI8965
aI8974
aI9222
aI9251
aI9281
aI9304
asS'sig01a'
(lp75
I60
aI149
aI173
aI176
aI427
aI567
aI900
aI1132
aI1307
aI1664
aI1755
aI1867
aI2113
aI2181
aI2216
aI2370
aI2386
aI2388
aI2396
aI2567
aI2697
aI2901
aI2925
aI2945
aI2949
aI3195
aI3410
aI3506
aI3509
aI3511
aI3513
aI3520
aI3529
aI3531
aI3661
aI3874
aI4112
aI4114
aI4117
aI4121
aI4133
aI4135
aI4137
aI4320
aI4384
aI4469
aI4545
aI4598
aI4668
aI4673
aI4674
aI4747
aI4766
aI4769
aI4770
aI4801
aI4898
aI4927
aI5087
aI5093
aI5109
aI5161
aI5412
aI5417
aI5420
aI5426
aI5430
aI5436
aI5452
aI5463
aI5466
aI5474
aI5482
aI5576
aI5638
aI5658
aI5787
aI5832
aI5984
aI5987
aI5998
aI6006
aI6007
aI6010
aI6017
aI6020
aI6021
aI6023
aI6035
aI6037
aI6043
aI6046
aI6047
aI6054
aI6059
aI6063
aI6072
aI6074
aI6083
aI6088
aI6109
aI6179
aI6344
aI6347
aI6349
aI6376
aI6506
aI6508
aI6528
aI6666
aI6679
aI6710
aI6711
aI6747
aI6750
aI6852
aI6947
aI7045
aI7254
aI7259
aI7262
aI7392
aI7507
aI7508
aI7513
aI7516
aI7518
aI7519
aI7566
aI7737
aI7740
aI7745
aI7847
aI7849
aI7915
aI7920
aI7998
aI8015
aI8054
aI8060
aI8155
aI8242
aI8248
aI8258
aI8282
aI8451
aI8488
aI8634
aI8638
aI8784
aI8790
aI8792
aI8795
aI8797
aI8975
aI9008
aI9010
aI9122
aI9220
assI14
(dp76
S'sig01b'
(lp77
I610
aI644
aI1012
aI1047
aI1167
aI1231
aI1265
aI2659
aI2687
aI2712
aI2724
aI2742
aI2748
aI2759
aI2773
aI2790
aI2824
aI3125
aI3134
aI3172
aI3528
aI3553
aI3699
aI3916
aI3956
aI3971
aI3979
aI3990
aI3993
aI3999
aI4002
aI4007
aI4038
aI4051
aI4066
aI4083
aI4144
aI4164
aI4182
aI4188
aI4205
aI4213
aI4217
aI4223
aI4225
aI4229
aI4242
aI4261
aI4292
aI4309
aI4348
aI4356
aI4405
aI4414
aI4423
aI4436
aI4449
aI4452
aI4470
aI4518
aI4528
aI4533
aI4568
aI4580
aI4591
aI4603
aI4623
aI4632
aI4643
aI4683
aI4887
aI4907
aI4924
aI4988
aI5022
aI5037
aI5046
aI5056
aI5070
aI5072
aI5080
aI5103
aI5114
aI5160
aI5191
aI5196
aI5218
aI5223
aI5225
aI5238
aI5258
aI5299
aI5308
aI5321
aI5332
aI5346
aI5359
aI5372
aI5383
aI5400
aI5419
aI5426
aI5440
aI5446
aI5449
aI5456
aI5469
aI5474
aI5486
aI5497
aI5907
aI5978
aI6131
aI6203
aI6251
aI6469
aI6504
aI6598
aI6658
aI6742
aI6746
aI6785
aI6987
aI7176
aI7182
aI7196
aI7204
aI7217
aI7231
aI7244
aI7254
aI7261
aI7285
aI7290
aI7312
aI7365
aI7378
aI7382
aI7550
aI7560
aI7573
aI7579
aI7586
aI7592
asS'sig01a'
(lp78
I70
aI127
aI198
aI399
aI512
aI1061
aI1067
aI1071
aI1110
aI1453
aI1481
aI1622
aI1680
aI1856
aI1858
aI1860
aI1863
aI1876
aI2000
aI2151
aI2153
aI2178
aI2179
aI2290
aI2397
aI2424
aI2465
aI2499
aI2612
aI2665
aI2667
aI2729
aI2779
aI2797
aI2803
aI2829
aI2832
aI3089
aI3090
aI3138
aI3148
aI3365
aI3368
aI3388
aI3532
aI3542
aI3545
aI3566
aI3838
aI3848
aI3930
aI3933
aI3936
aI3938
aI3946
aI3947
aI3948
aI3949
aI3953
aI3977
aI3996
aI4028
aI4166
aI4190
aI4201
aI4208
aI4210
aI4214
aI4291
aI4361
aI4473
aI4476
aI4518
aI4521
aI4537
aI4539
aI4544
aI4548
aI4564
aI4565
aI4591
aI4645
aI4662
aI4662
aI4671
aI4808
aI4810
aI4889
aI4893
aI4896
aI4941
aI4993
aI5031
aI5084
aI5128
aI5130
aI5320
aI5328
aI5339
aI5412
aI5503
aI5577
aI5581
aI5729
aI5889
aI5893
aI5896
aI6266
aI6281
aI6474
aI6477
aI6478
aI6480
aI6482
aI6594
aI6597
aI6600
aI6716
aI6737
aI6851
aI6888
aI6981
aI7081
aI7188
aI7198
aI7199
aI7219
aI7234
aI7240
aI7242
aI7255
aI7269
aI7273
aI7286
aI7289
aI7291
aI7470
aI7505
aI7511
aI7513
aI7514
aI7524
aI7529
aI7532
aI7536
aI7543
aI7549
aI7554
assI13
(dp79
S'sig01b'
(lp80
I582
aI1541
aI2135
aI2174
aI2187
aI2208
aI2234
aI2330
aI2547
aI2808
aI2824
aI2829
aI2843
aI2860
aI2867
aI2876
aI2884
aI2893
aI2907
aI2924
aI2935
aI2946
aI2963
aI2974
aI2992
aI3008
aI3024
aI3036
aI3042
aI3051
aI3062
aI3074
aI3080
aI3092
aI3106
aI3122
aI3129
aI3743
aI3762
aI3771
aI3781
aI3796
aI3805
aI3813
aI3847
aI3934
aI3944
aI3967
aI3988
aI3995
aI4010
aI4020
aI4033
aI4047
aI4078
aI4094
aI4119
aI4147
aI4338
aI4352
aI4359
aI4368
aI4378
aI4388
aI4393
aI4399
aI4406
aI4415
aI4417
aI4424
aI4437
aI4442
aI4447
aI4460
aI4477
aI4485
aI4497
aI4580
aI4628
aI4651
aI4682
aI4857
aI4875
aI4883
aI4919
aI4958
aI5007
aI5043
aI5050
aI5057
aI5071
aI5082
aI5086
aI5094
aI5102
aI5115
aI5340
aI5501
aI5553
aI5575
aI5585
aI5591
aI5597
aI5605
aI5611
aI5616
aI5620
aI5623
aI5627
aI5633
aI5640
aI5643
aI5648
aI5656
aI5666
aI5678
aI5697
aI5706
aI5721
aI5725
aI5750
aI5752
aI5769
aI5787
aI5811
aI5816
aI5821
aI5840
aI5847
aI5880
aI5939
aI5964
aI5976
aI5988
aI6007
aI6059
aI6076
aI6113
aI6156
aI6163
aI6170
aI6185
aI6197
aI6219
aI6230
aI6242
aI6250
aI6263
aI6274
aI6287
aI6295
aI6303
aI6315
aI6364
aI6378
aI6394
aI6421
aI6446
aI6470
aI6481
aI6513
aI6526
aI6538
aI6542
aI6550
aI6572
aI6588
aI6600
aI6609
aI6616
aI6625
aI6930
aI7104
aI7110
aI7449
aI7477
aI7615
aI7654
aI7781
aI7897
aI7914
aI7924
aI7935
aI7946
aI7948
aI7956
aI7963
aI7971
aI7981
aI7990
aI7999
aI8006
aI8016
aI8021
aI8028
aI8034
aI8046
aI8050
aI8059
aI8068
aI8084
asS'sig01a'
(lp81
I615
aI761
aI974
aI984
aI1267
aI1272
aI1492
aI1673
aI2477
aI2546
aI2572
aI2792
aI2850
aI2872
aI2973
aI3377
aI3380
aI3386
aI3496
aI3631
aI3632
aI3634
aI3674
aI3683
aI3749
aI3788
aI3837
aI3855
aI3885
aI4143
aI4204
aI4315
aI4317
aI4321
aI4323
aI4334
aI4340
aI4358
aI4391
aI4638
aI4750
aI4871
aI4937
aI5018
aI5042
aI5104
aI5317
aI5526
aI5564
aI5657
aI5659
aI5661
aI5664
aI5670
aI5672
aI5674
aI5712
aI5761
aI5776
aI5790
aI5792
aI5795
aI5805
aI5806
aI5807
aI5809
aI5812
aI5823
aI5827
aI5834
aI5843
aI5915
aI6105
aI6108
aI6223
aI6338
aI6350
aI6409
aI6411
aI6413
aI6415
aI6417
aI6442
aI6450
aI6476
aI6485
aI6485
aI6581
aI6632
aI6789
aI6883
aI6927
aI6937
aI6949
aI7114
aI7119
aI7121
aI7124
aI7126
aI7128
aI7132
aI7281
aI7388
aI7430
aI7464
aI7740
aI7903
aI7905
aI7911
aI7913
aI7918
aI7928
aI7929
aI7960
aI8012
aI8098
aI8108
aI8111
aI8113
assI12
(dp82
S'sig01b'
(lp83
I167
aI201
aI235
aI247
aI274
aI292
aI438
aI444
aI464
aI473
aI2284
aI3081
aI3160
aI3205
aI3223
aI3565
aI3579
aI3691
aI3857
aI3870
aI4298
aI4305
aI4642
aI4651
aI4684
aI4945
aI4990
aI5199
aI5266
aI5286
aI5289
aI5320
aI5332
aI5339
aI5356
aI5361
aI5371
aI5379
aI5384
aI5390
aI5406
aI5501
aI5513
aI5524
aI5534
aI5544
aI5553
aI5562
aI5570
aI5575
aI5586
aI5590
aI5597
aI5607
aI5616
aI5624
aI5637
aI5666
aI5728
aI5926
aI5937
aI5950
aI5967
aI5990
aI6003
aI6147
aI6257
aI6435
aI6454
aI6461
aI6526
aI6601
aI6609
aI6620
aI6622
aI6630
aI6634
aI6642
aI6652
aI6655
aI6665
aI6690
aI6710
aI6718
aI6732
aI6767
aI6772
aI6794
aI6827
aI6846
aI6849
aI6872
aI6919
aI6933
aI6943
aI6954
aI6960
aI6973
aI6983
aI6992
aI6996
aI7018
aI7059
aI7100
aI7136
aI7154
aI7159
aI7175
aI7193
aI7208
aI7234
aI7242
aI7252
aI7261
aI7293
aI7321
aI7337
aI7344
aI7351
aI7355
aI7365
aI7374
aI7390
aI7400
aI7409
aI7414
aI7459
aI7470
aI7773
aI7790
aI7818
asS'sig01a'
(lp84
I121
aI123
aI125
aI129
aI130
aI133
aI137
aI139
aI148
aI209
aI676
aI844
aI912
aI915
aI917
aI919
aI921
aI922
aI1016
aI1172
aI1183
aI1213
aI1214
aI1344
aI1460
aI1460
aI1467
aI1474
aI1647
aI1652
aI1654
aI1658
aI1884
aI1984
aI1990
aI2055
aI2279
aI2287
aI2290
aI2292
aI2296
aI2342
aI2547
aI2728
aI2730
aI2761
aI2792
aI2892
aI3153
aI3202
aI3220
aI3311
aI3397
aI3400
aI3544
aI3716
aI3962
aI4157
aI4371
aI4391
aI4426
aI4538
aI4643
aI4646
aI4648
aI4783
aI4785
aI4906
aI4935
aI5225
aI5268
aI5272
aI5297
aI5298
aI5306
aI5308
aI5325
aI5334
aI5338
aI5350
aI5355
aI5355
aI5366
aI5370
aI5373
aI5387
aI5400
aI5420
aI5507
aI5776
aI5974
aI5980
aI6138
aI6140
aI6266
aI6392
aI6413
aI6544
aI6583
aI6662
aI6674
aI6675
aI6756
aI6793
aI6847
aI6878
aI6890
aI7105
aI7113
aI7149
aI7190
aI7224
aI7244
aI7289
aI7309
aI7310
aI7314
aI7316
aI7379
aI7399
aI7405
aI7473
aI7510
aI7601
aI7719
assI11
(dp85
S'sig01b'
(lp86
I294
aI325
aI370
aI389
aI416
aI463
aI1207
aI2351
aI2971
aI3505
aI3595
aI3714
aI3741
aI3805
aI3852
aI3892
aI3923
aI3971
aI3992
aI4020
aI4063
aI4102
aI4189
aI4208
aI4219
aI4242
aI4245
aI4248
aI4255
aI4258
aI4262
aI4268
aI4273
aI4280
aI4285
aI4287
aI4292
aI4300
aI4308
aI4314
aI4320
aI4324
aI4330
aI4338
aI4341
aI4349
aI4351
aI4354
aI4361
aI4368
aI4371
aI4377
aI4380
aI4382
aI4387
aI4399
aI4403
aI4409
aI4585
aI4592
aI4603
aI4633
aI4691
aI4743
aI4774
aI4798
aI4826
aI4859
aI4882
aI4906
aI4922
aI4935
aI4961
aI4978
aI4998
aI5008
aI5018
aI5034
aI5053
aI5061
aI5069
aI5076
aI5083
aI5093
aI5095
aI5115
aI5135
aI5139
aI5152
aI5167
aI5173
aI5191
aI5197
aI5200
aI5203
aI5208
aI5225
aI5235
aI5247
aI5253
aI5257
aI5262
aI5264
aI5272
aI5278
aI5282
aI5322
aI5332
aI5343
aI5349
aI5356
aI5360
aI5366
aI5378
aI5423
aI5428
aI5446
aI5463
aI5468
aI5506
aI5537
aI5554
aI5563
aI5567
aI5579
aI5586
aI5598
aI5603
aI5617
aI5738
aI5744
aI5751
aI5759
aI5769
aI5775
aI5782
aI5791
aI5800
aI5953
aI6012
aI6038
aI6059
aI6073
aI6082
aI6089
aI6111
aI6135
aI6141
aI6152
aI6174
aI6184
aI6193
aI6220
aI6539
aI6557
aI6568
aI6572
aI6695
aI6704
aI6711
aI6726
aI6763
aI6774
aI6786
aI6796
aI6804
aI6815
aI6964
aI6976
aI7039
aI7102
aI7111
aI7126
aI7138
aI7150
aI7164
aI7185
aI7197
aI7210
aI7230
aI7239
aI7244
aI7252
aI7264
aI7285
aI7399
aI7615
aI7761
aI7809
aI7822
aI7849
aI7882
aI7890
aI7905
asS'sig01a'
(lp87
I84
aI251
aI289
aI534
aI615
aI629
aI1035
aI1099
aI1593
aI1595
aI1598
aI1600
aI1604
aI1605
aI1825
aI1827
aI1949
aI1987
aI2052
aI2213
aI2217
aI2367
aI2373
aI2383
aI2403
aI2572
aI2574
aI2721
aI2757
aI2911
aI3045
aI3047
aI3048
aI3050
aI3061
aI3250
aI3309
aI3427
aI3538
aI3547
aI3548
aI3597
aI3704
aI3762
aI3980
aI3983
aI4001
aI4036
aI4235
aI4253
aI4319
aI4321
aI4322
aI4326
aI4334
aI4343
aI4344
aI4367
aI4376
aI4377
aI4421
aI4489
aI4626
aI4695
aI4698
aI4702
aI4753
aI4928
aI4943
aI4946
aI5136
aI5143
aI5155
aI5159
aI5160
aI5182
aI5231
aI5255
aI5256
aI5299
aI5376
aI5530
aI5539
aI5758
aI5761
aI5910
aI5912
aI5914
aI6063
aI6244
aI6261
aI6499
aI6654
aI6661
aI6675
aI6679
aI6703
aI6714
aI6733
aI6751
aI6768
aI6839
aI6855
aI6860
aI7046
aI7061
aI7092
aI7195
aI7195
aI7199
aI7201
aI7204
aI7207
aI7221
aI7234
aI7240
aI7251
aI7266
aI7473
aI7544
aI7663
aI7757
aI7763
aI7766
aI7772
aI7780
aI7791
aI7799
aI7818
aI7825
aI7833
aI7835
aI7846
aI7870
aI7893
aI7897
aI7902
aI7908
aI7913
aI7916
aI7963
aI8005
assI10
(dp88
S'sig01b'
(lp89
I1030
aI1186
aI1938
aI3574
aI3595
aI3607
aI3626
aI3643
aI3659
aI4121
aI4140
aI4179
aI4229
aI4279
aI4333
aI4350
aI4383
aI4407
aI4455
aI4486
aI4504
aI4624
aI4855
aI4859
aI4869
aI4885
aI4892
aI4895
aI4909
aI4912
aI4916
aI4920
aI4925
aI4928
aI4940
aI4953
aI5063
aI5070
aI5183
aI5194
aI5203
aI5223
aI5234
aI5319
aI5328
aI5361
aI5372
aI5376
aI5381
aI5388
aI5394
aI5402
aI5411
aI5416
aI5424
aI5438
aI5446
aI5460
aI5468
aI5482
aI5502
aI5509
aI5598
aI5664
aI5758
aI5768
aI5792
aI5821
aI6194
aI6212
aI6247
aI6303
aI6366
aI6421
aI6891
aI6898
aI6905
aI6912
aI6920
aI6928
aI6934
aI6941
aI6948
aI6953
aI6956
aI6965
aI6971
aI6982
aI6997
aI7006
aI7017
aI7023
aI7027
aI7079
aI7089
aI7096
aI7107
aI7116
aI7128
aI7286
aI7344
aI7402
aI7673
aI7699
aI7723
aI7991
aI7998
aI8008
aI8019
aI8207
aI8220
aI8228
aI8236
aI8247
aI8259
aI8273
aI8282
asS'sig01a'
(lp90
I164
aI166
aI377
aI395
aI539
aI549
aI572
aI785
aI840
aI899
aI1070
aI1196
aI1359
aI1544
aI1594
aI1736
aI1793
aI2010
aI2012
aI2014
aI2016
aI2018
aI2020
aI2022
aI2024
aI2275
aI2398
aI2422
aI2612
aI2659
aI2742
aI2754
aI2894
aI2963
aI3152
aI3344
aI3354
aI3356
aI3358
aI3359
aI3362
aI3678
aI3719
aI3721
aI3833
aI3852
aI3982
aI4006
aI4189
aI4196
aI4200
aI4366
aI4454
aI4668
aI4823
aI4825
aI4832
aI4835
aI4839
aI4842
aI4843
aI4849
aI4860
aI4862
aI4878
aI4884
aI5062
aI5064
aI5206
aI5230
aI5281
aI5325
aI5327
aI5331
aI5333
aI5338
aI5343
aI5347
aI5349
aI5369
aI5382
aI5437
aI5491
aI5499
aI5640
aI5649
aI5725
aI5796
aI5798
aI5800
aI5804
aI5918
aI6081
aI6086
aI6089
aI6408
aI6787
aI6841
aI6894
aI6903
aI7008
aI7019
aI7021
aI7025
aI7034
aI7037
aI7038
aI7039
aI7045
aI7053
aI7054
aI7060
aI7062
aI7065
aI7068
aI7076
aI7087
aI7095
aI7098
aI7129
aI7339
aI7378
aI7488
aI7562
aI7608
aI7741
aI7774
aI7939
aI7996
aI8010
aI8060
aI8305
assI9
(dp91
S'sig01b'
(lp92
I463
aI779
aI800
aI2335
aI2359
aI2379
aI2491
aI3172
aI3188
aI3198
aI3204
aI3226
aI3231
aI3238
aI3242
aI3246
aI3256
aI3263
aI3273
aI3285
aI3309
aI3356
aI3380
aI3420
aI3435
aI3452
aI3486
aI3513
aI3534
aI3543
aI3562
aI3580
aI3583
aI3598
aI3601
aI3618
aI3628
aI3640
aI3667
aI3674
aI3680
aI3686
aI3698
aI3801
aI3979
aI4006
aI4014
aI4054
aI4074
aI4098
aI4109
aI4160
aI4189
aI4265
aI4305
aI4379
aI4613
aI4679
aI4697
aI4705
aI4747
aI4764
aI4774
aI4780
aI4790
aI4799
aI4809
aI4821
aI4830
aI4835
aI4842
aI4857
aI4863
aI4881
aI4898
aI4906
aI4916
aI4924
aI4929
aI4939
aI4967
aI4977
aI4988
aI4999
aI5013
aI5041
aI5050
aI5075
aI5079
aI5089
aI5097
aI5103
aI5112
aI5131
aI5160
aI5173
aI5188
aI5198
aI5210
aI5224
aI5229
aI5246
aI5334
aI5527
aI5606
aI5656
aI5659
aI5667
aI5678
aI5689
aI5692
aI5698
aI5704
aI5710
aI5716
aI5719
aI5723
aI5737
aI5741
aI5754
aI5757
aI5887
aI5896
aI5901
aI5904
aI5915
aI5920
aI5926
aI5932
aI5937
aI5955
aI5981
aI5988
aI6075
aI6090
aI6106
aI6114
aI6127
aI6135
aI6177
aI6189
aI6194
aI6212
aI6228
aI6233
aI6246
aI6257
aI6260
aI6275
aI6277
aI6373
aI6389
aI6415
aI6574
aI6608
aI8032
aI8039
aI8050
aI8057
aI8071
aI8076
aI8080
aI8090
aI8097
aI8104
aI8112
aI8135
aI8564
aI8793
aI8855
aI9413
aI9430
aI9449
aI9473
aI9485
aI9506
aI9523
aI9660
aI9693
aI9707
aI9725
aI9736
aI9757
aI10082
aI10126
aI10165
aI10309
aI11317
aI11368
aI11411
aI11432
aI11440
asS'sig01a'
(lp93
I118
aI567
aI569
aI618
aI731
aI940
aI1194
aI1198
aI1497
aI1499
aI1506
aI1509
aI1646
aI1648
aI1650
aI1655
aI1815
aI1980
aI2021
aI2025
aI2027
aI2323
aI2326
aI2339
aI2354
aI2411
aI2487
aI2541
aI2664
aI2742
aI2744
aI2747
aI2749
aI2752
aI2775
aI2805
aI3044
aI3045
aI3047
aI3139
aI3141
aI3143
aI3145
aI3174
aI3187
aI3191
aI3196
aI3199
aI3202
aI3209
aI3210
aI3212
aI3214
aI3216
aI3218
aI3233
aI3234
aI3282
aI3289
aI3327
aI3545
aI3549
aI3555
aI3560
aI3631
aI3635
aI3900
aI3913
aI4077
aI4400
aI4611
aI4614
aI4620
aI4629
aI4849
aI4914
aI5033
aI5037
aI5045
aI5046
aI5074
aI5124
aI5233
aI5242
aI5530
aI5533
aI5535
aI5536
aI5541
aI5545
aI5549
aI5551
aI5641
aI5642
aI5644
aI5647
aI5649
aI5652
aI5654
aI5658
aI5681
aI5703
aI5852
aI5854
aI5870
aI5872
aI5880
aI5893
aI5912
aI5919
aI5935
aI5949
aI6023
aI6082
aI6084
aI6086
aI6092
aI6122
aI6137
aI6142
aI6159
aI6160
aI6164
aI6167
aI6187
aI6202
aI6204
aI6205
aI6214
aI6216
aI6224
aI6238
aI6364
aI6470
aI6474
aI6566
aI6580
aI6604
aI6615
aI6617
aI6627
aI6677
aI6692
aI6722
aI6811
aI7026
aI7070
aI7219
aI7413
aI7505
aI7909
aI7982
aI8682
aI8689
aI8691
aI8693
aI8697
aI8699
aI9195
aI9210
aI9212
aI9215
aI9217
aI9218
aI9221
aI9399
aI9517
aI9566
aI9590
aI9686
aI9799
aI9966
aI10277
aI10458
aI10521
aI10649
aI11021
aI11023
aI11028
aI11030
aI11032
aI11033
aI11038
aI11042
aI11275
aI11281
assI8
(dp94
S'sig01b'
(lp95
I2910
aI3694
aI3706
aI3727
aI3733
aI3741
aI3748
aI3751
aI3758
aI3762
aI3769
aI3777
aI3781
aI3788
aI3793
aI3799
aI3811
aI3847
aI3903
aI4071
aI4096
aI4105
aI4298
aI4327
aI4602
aI4633
aI4649
aI4671
aI4691
aI4743
aI4758
aI4854
aI4902
aI5020
aI5096
aI5335
aI5372
aI5382
aI5393
aI5400
aI5407
aI5416
aI5425
aI5438
aI5443
aI5449
aI5461
aI5472
aI5500
aI5573
aI5632
aI5644
aI5706
aI5737
aI5760
aI5772
aI5810
aI5847
aI5861
aI5870
aI5878
aI5888
aI6036
aI6143
aI6160
aI6170
aI6322
aI6336
aI6341
aI6350
aI6367
aI6380
aI6390
aI6401
aI6421
aI6434
aI6443
aI6462
aI6477
aI6483
aI6504
aI6518
aI6523
aI6529
aI6535
aI6546
aI6556
aI6565
aI6599
aI6618
aI6648
aI6973
aI7002
aI7100
aI7108
aI7114
aI7119
aI7134
aI7142
aI7152
aI7165
aI7186
aI7341
aI7421
aI7457
aI7470
aI7473
aI7485
aI7504
aI7562
aI7579
aI7592
aI7607
aI7661
aI7681
aI7743
aI7778
aI7797
aI7806
aI7833
aI7959
aI8109
aI8136
aI8145
aI8155
aI8245
aI8250
aI8266
aI8270
aI8278
aI8286
aI8305
aI8314
asS'sig01a'
(lp96
I601
aI603
aI605
aI609
aI861
aI918
aI921
aI939
aI943
aI946
aI1099
aI1193
aI1204
aI1207
aI1391
aI1502
aI1529
aI1539
aI1596
aI1896
aI2030
aI2048
aI2052
aI2179
aI2605
aI2610
aI2618
aI2628
aI2629
aI2927
aI2930
aI2969
aI2971
aI3032
aI3184
aI3237
aI3263
aI3295
aI3298
aI3301
aI3304
aI3306
aI3553
aI3567
aI3669
aI3684
aI3693
aI3697
aI3716
aI3717
aI3720
aI3725
aI3743
aI3785
aI3853
aI4082
aI4090
aI4291
aI4308
aI4325
aI4455
aI4456
aI4459
aI4461
aI4463
aI4466
aI4752
aI4763
aI4944
aI5319
aI5322
aI5325
aI5328
aI5338
aI5488
aI5494
aI5526
aI5593
aI5722
aI5728
aI5731
aI5733
aI5735
aI5739
aI5742
aI5753
aI5820
aI5857
aI5884
aI5947
aI6133
aI6148
aI6151
aI6317
aI6326
aI6330
aI6370
aI6374
aI6499
aI6590
aI6602
aI6641
aI6669
aI6676
aI6677
aI6682
aI6689
aI6690
aI6692
aI6975
aI6982
aI7273
aI7410
aI7412
aI7415
aI7419
aI7425
aI7445
aI7632
aI7635
aI7635
aI7644
aI7712
aI7814
aI7822
aI7824
aI8072
aI8140
aI8144
aI8149
aI8150
aI8164
aI8182
assI7
(dp97
S'sig01b'
(lp98
I144
aI304
aI635
aI1499
aI1565
aI2862
aI3470
aI3507
aI3637
aI3661
aI4059
aI4061
aI4102
aI4150
aI4228
aI4310
aI4410
aI4481
aI4502
aI4553
aI4561
aI4569
aI4580
aI4584
aI4589
aI4599
aI4623
aI4642
aI4665
aI4693
aI4699
aI4707
aI4715
aI4728
aI4739
aI4761
aI4846
aI4893
aI4922
aI4988
aI5021
aI5032
aI5037
aI5047
aI5054
aI5062
aI5074
aI5119
aI5143
aI5157
aI5165
aI5182
aI5185
aI5196
aI5205
aI5218
asS'sig01a'
(lp99
I164
aI258
aI466
aI570
aI752
aI799
aI1372
aI1662
aI1705
aI1713
aI1715
aI1717
aI1887
aI1997
aI2000
aI2001
aI2050
aI2207
aI2261
aI2351
aI2369
aI2421
aI2503
aI2505
aI2602
aI2633
aI2636
aI2776
aI2777
aI2779
aI2871
aI2932
aI2935
aI3014
aI3134
aI3209
aI3255
aI3261
aI3265
aI3266
aI3268
aI3270
aI3401
aI3413
aI3424
aI3425
aI3632
aI3756
aI3758
aI3971
aI4046
aI4075
aI4407
aI4423
aI4426
aI4437
aI4536
aI4610
aI4684
aI4865
aI4930
aI4956
aI5028
aI5125
aI5128
aI5129
aI5131
aI5140
aI5160
aI5163
assI6
(dp100
S'sig01b'
(lp101
I345
aI560
aI961
aI981
aI1008
aI1028
aI1072
aI1318
aI1542
aI1579
aI1588
aI2375
aI2975
aI3010
aI3037
aI3050
aI3063
aI3084
aI3148
aI3267
aI3321
aI3369
aI3405
aI3437
aI3505
aI3538
aI3556
aI3588
aI3606
aI3642
aI3733
aI3798
aI3950
aI3998
aI4021
aI4061
aI4146
aI4163
aI4177
aI4187
aI4203
aI4207
aI4214
aI4220
aI4236
aI4258
aI4271
aI4456
aI4496
aI4520
aI4539
aI4572
aI4610
aI4658
aI4673
aI4739
aI4795
aI4809
aI4846
aI4861
aI5075
aI5260
aI5284
aI5361
aI5369
aI5381
aI5398
aI5416
aI5783
aI5840
aI6012
aI6037
aI6059
aI6080
aI6095
aI6121
aI6141
aI6167
aI6192
aI6208
aI6212
aI6217
aI6224
aI6233
aI6253
aI6269
aI6279
aI6288
aI6297
aI6301
aI6309
aI6368
aI6380
aI6388
aI6396
aI6402
aI6410
aI6419
aI6432
aI6478
aI6499
aI6511
aI6519
aI6526
aI6661
aI6784
aI6806
aI6829
aI6843
aI7163
aI7176
aI7196
aI7521
aI7562
aI7653
aI7744
aI7759
aI7771
asS'sig01a'
(lp102
I6
aI22
aI225
aI298
aI307
aI531
aI626
aI674
aI914
aI1025
aI1205
aI1264
aI1481
aI1534
aI1848
aI1933
aI2105
aI2145
aI2312
aI2350
aI2789
aI2791
aI2821
aI2964
aI3062
aI3117
aI3467
aI3477
aI3492
aI3597
aI3768
aI3974
aI4066
aI4101
aI4117
aI4120
aI4128
aI4130
aI4137
aI4186
aI4300
aI4405
aI4499
aI4578
aI4736
aI4752
aI5049
aI5054
aI5057
aI5063
aI5140
aI5251
aI5253
aI5267
aI5340
aI5433
aI5434
aI5438
aI5439
aI5662
aI5709
aI5951
aI6006
aI6010
aI6162
aI6174
aI6176
aI6180
aI6183
aI6185
aI6192
aI6200
aI6207
aI6214
aI6215
aI6246
aI6298
aI6302
aI6313
aI6360
aI6490
aI6512
aI6590
aI6622
aI6792
aI6796
aI6809
aI7123
aI7125
aI7175
aI7180
aI7346
aI7362
aI7498
aI7526
aI7527
aI7558
aI7727
assI5
(dp103
S'sig01b'
(lp104
I1293
aI2676
aI2706
aI2782
aI2810
aI2868
aI3089
aI3096
aI3288
aI3409
aI3423
aI3440
aI3459
aI3477
aI3491
aI3503
aI3528
aI3554
aI3568
aI3592
aI3605
aI3617
aI3629
aI3642
aI3664
aI3669
aI3675
aI3685
aI3692
aI3701
aI3719
aI3725
aI3736
aI3741
aI3745
aI3749
aI3757
aI3988
aI3997
aI4025
aI4044
aI4064
aI4111
aI4123
aI4157
aI4177
aI4183
aI4210
aI4240
aI4257
aI4262
aI4279
aI4303
aI4306
aI4321
aI4342
aI4360
aI4392
aI4450
aI4468
aI4687
aI4732
aI4772
aI4996
aI5003
aI5022
aI5136
aI5141
aI5154
aI5168
aI5177
aI5183
aI5188
aI5199
aI5213
aI5226
aI5249
aI5266
aI5276
aI5278
aI5287
aI5364
aI5424
aI5453
aI5460
aI5478
aI5541
aI5557
aI5579
aI5586
aI5629
aI5809
aI5818
aI5824
aI5828
aI5835
aI5841
aI5845
aI5849
aI5854
aI5861
aI5864
aI5869
aI5875
aI5885
aI5892
aI5900
aI5912
aI6017
aI6029
aI6039
aI6069
aI6088
aI6101
aI6398
aI6411
aI6671
aI6675
aI6691
aI6694
aI6703
aI6707
aI6711
aI6716
aI6717
aI6724
aI6728
aI6734
aI6748
aI6821
aI6836
aI6847
aI6855
aI6904
aI6925
aI6936
aI6944
aI6959
aI6977
aI6985
aI7026
aI7039
aI7047
aI7056
aI7062
aI7073
aI7086
aI7112
aI7119
aI7131
aI7136
aI7139
aI7149
aI7158
aI7170
aI7177
aI7199
aI7244
aI7274
aI7280
aI7443
aI7462
aI7494
asS'sig01a'
(lp105
I21
aI261
aI836
aI839
aI841
aI1005
aI1007
aI1325
aI1402
aI1404
aI1407
aI1409
aI1631
aI1645
aI1844
aI1859
aI1971
aI2000
aI2016
aI2453
aI2484
aI2502
aI3084
aI3085
aI3086
aI3088
aI3398
aI3412
aI3415
aI3442
aI3583
aI3590
aI3654
aI3677
aI3689
aI3735
aI3751
aI3754
aI3772
aI3984
aI3989
aI3993
aI3999
aI4004
aI4018
aI4038
aI4127
aI4214
aI4221
aI4223
aI4324
aI4363
aI4540
aI4798
aI4989
aI4995
aI5127
aI5132
aI5135
aI5156
aI5291
aI5295
aI5445
aI5631
aI5802
aI5999
aI6001
aI6004
aI6006
aI6009
aI6016
aI6020
aI6023
aI6028
aI6032
aI6048
aI6052
aI6057
aI6146
aI6147
aI6148
aI6151
aI6391
aI6393
aI6394
aI6402
aI6662
aI6678
aI6680
aI6708
aI6831
aI6833
aI6838
aI6843
aI6941
aI6961
aI6975
aI6979
aI6982
aI6984
aI6987
aI6989
aI6995
aI6999
aI7013
aI7022
aI7032
aI7097
aI7109
aI7279
aI7434
aI7487
assI4
(dp106
S'sig01b'
(lp107
I197
aI265
aI727
aI1837
aI1863
aI1902
aI1917
aI2921
aI2937
aI2955
aI2985
aI3022
aI3026
aI3199
aI3380
aI3436
aI3468
aI3539
aI3703
aI3744
aI3793
aI3843
aI3867
aI3904
aI3940
aI3968
aI3993
aI4051
aI4074
aI4088
aI4102
aI4118
aI4128
aI4146
aI4159
aI4180
aI4191
aI4200
aI4216
aI4227
aI4243
aI4248
aI4258
aI4271
aI4278
aI4283
aI4289
aI4293
aI4306
aI4314
aI4322
aI4324
aI4327
aI4336
aI4345
aI4349
aI4369
aI4375
aI4402
aI4414
aI4416
aI4425
aI4430
aI4433
aI4440
aI4457
aI4462
aI4471
aI4478
aI4492
aI4495
aI4569
aI4576
aI4586
aI4612
aI4701
aI4731
aI4763
aI4783
aI4804
aI4838
aI4846
aI4854
aI4893
aI4923
aI4953
aI4975
aI4999
aI5016
aI5023
aI5040
aI5048
aI5052
aI5073
aI5090
aI5110
aI5132
aI5139
aI5146
aI5172
aI5182
aI5190
aI5212
aI5264
aI5271
aI5283
aI5303
aI5321
aI5327
aI5342
aI5364
aI5400
aI5431
aI5442
aI5467
aI5478
aI5500
aI5582
aI5621
aI5651
aI5696
aI5712
aI5717
aI5737
aI5748
aI5750
aI5767
aI6032
aI6091
aI6097
aI6107
aI6145
aI6172
aI6219
aI6237
aI6249
aI6257
aI6266
aI6271
aI6279
aI6286
aI6299
aI6315
aI6428
aI6673
aI6822
aI6870
aI6945
aI6964
aI6977
aI7070
aI7119
aI7380
aI7407
aI7505
asS'sig01a'
(lp108
I12
aI106
aI231
aI582
aI972
aI975
aI976
aI978
aI980
aI1246
aI1251
aI1361
aI1376
aI1465
aI1495
aI1544
aI1546
aI1563
aI1884
aI1970
aI2110
aI2117
aI2126
aI2128
aI2130
aI2132
aI2135
aI2137
aI2139
aI2141
aI2151
aI2289
aI2336
aI2443
aI2481
aI2483
aI2631
aI2671
aI2723
aI2725
aI2727
aI2729
aI2733
aI2737
aI2739
aI3015
aI3054
aI3056
aI3200
aI3205
aI3702
aI3706
aI3754
aI3854
aI3991
aI4000
aI4002
aI4185
aI4287
aI4361
aI4379
aI4383
aI4385
aI4391
aI4417
aI4437
aI4447
aI4449
aI4571
aI4573
aI4577
aI4940
aI4952
aI4959
aI4963
aI5008
aI5017
aI5050
aI5115
aI5148
aI5228
aI5231
aI5425
aI5441
aI5577
aI5697
aI5714
aI5751
aI5866
aI5973
aI5976
aI6293
aI6590
aI6661
aI6670
aI6792
aI6798
aI6985
aI7048
aI7186
aI7383
aI7389
aI7389
aI7517
assI3
(dp109
S'sig01b'
(lp110
I3607
aI3618
aI3632
aI3645
aI3652
aI3660
aI3668
aI3677
aI3685
aI3695
aI3705
aI3713
aI3747
aI3982
aI4142
aI4155
aI4242
aI4320
aI4344
aI4381
aI4403
aI4453
aI4540
aI4641
aI4677
aI4701
aI4712
aI4733
aI4741
aI4744
aI4757
aI4765
aI4773
aI4779
aI4789
aI4800
aI4808
aI4830
aI4864
aI4899
aI4907
aI4918
aI4931
aI4968
aI5015
aI5077
aI5267
aI5278
aI5289
aI5293
aI5296
aI5301
aI5344
aI5374
aI5390
aI5399
aI5408
aI5412
aI5418
aI5423
aI5438
aI5451
aI5530
aI5534
aI5551
aI5556
aI5564
aI5613
aI5627
aI5636
aI5648
aI5656
aI5663
aI5678
aI5682
aI5697
aI5711
aI5836
aI5853
aI5860
aI5866
aI5880
aI5892
aI5915
aI6006
aI6160
aI6185
aI6211
aI6240
aI6260
aI6279
aI6298
aI6315
aI6331
aI6360
aI6392
aI6415
aI6435
aI6447
aI6475
aI6486
aI6499
aI6507
aI6516
aI6533
aI6709
aI6720
aI6754
aI6769
aI6778
aI6788
aI6803
aI6811
aI6816
aI6842
aI6853
aI6869
aI6883
aI6894
aI6909
aI6918
aI6922
aI6928
aI6941
aI6948
aI6974
aI7163
aI7321
aI7349
aI7360
aI7382
aI7402
aI7466
aI7492
aI7534
aI7605
aI7793
aI7815
aI7839
aI7906
aI7971
aI7975
aI8002
aI8013
aI8020
aI8027
aI8030
aI8037
aI8044
aI8060
aI8132
aI8166
aI8191
aI8193
aI8199
aI8209
aI8219
aI8221
aI8232
aI8235
aI8244
asS'sig01a'
(lp111
I59
aI406
aI615
aI621
aI623
aI625
aI930
aI933
aI955
aI971
aI1065
aI1069
aI1073
aI1075
aI1084
aI1086
aI1088
aI1306
aI1308
aI1550
aI1554
aI1560
aI1947
aI1949
aI2153
aI2156
aI2158
aI2178
aI2378
aI2525
aI2545
aI2559
aI2561
aI2699
aI2884
aI2957
aI2986
aI3090
aI3210
aI3213
aI3226
aI3228
aI3410
aI3502
aI3583
aI3585
aI3589
aI3700
aI3744
aI3985
aI4149
aI4151
aI4154
aI4254
aI4418
aI4514
aI4518
aI4710
aI4714
aI4726
aI4740
aI4765
aI4788
aI4901
aI4903
aI4938
aI5052
aI5291
aI5321
aI5348
aI5570
aI5574
aI5576
aI5578
aI5580
aI6174
aI6178
aI6234
aI6384
aI6386
aI6389
aI6439
aI6561
aI6645
aI6693
aI6695
aI6700
aI6776
aI7044
aI7283
aI7285
aI7413
aI7639
aI7756
aI7961
aI7982
aI7986
aI7987
aI7997
aI8000
assI2
(dp112
S'sig01b'
(lp113
I1314
aI1676
aI3186
aI3557
aI3564
aI3726
aI3838
aI3856
aI3870
aI3881
aI3916
aI3920
aI3929
aI3943
aI3954
aI3962
aI3979
aI3988
aI3991
aI4010
aI4034
aI4053
aI4067
aI4080
aI4097
aI4108
aI4111
aI4121
aI4132
aI4140
aI4150
aI4178
aI4205
aI4276
aI4287
aI4310
aI4366
aI4489
aI4503
aI4516
aI4646
aI4674
aI4693
aI4701
aI4729
aI4737
aI4744
aI4784
aI4824
aI4841
aI4859
aI4877
aI4898
aI4920
aI4930
aI4958
aI5073
aI5111
aI5140
aI5203
aI5215
aI5222
aI5243
aI5256
aI5263
aI5275
aI5287
aI5300
aI5314
aI5329
aI5531
aI5552
aI5573
aI5579
aI5587
aI5589
aI5603
aI5613
aI5634
aI5787
aI5810
aI5827
aI5840
aI5859
aI5864
aI5887
aI5892
aI5901
aI5909
aI5915
aI5927
aI5942
aI5969
aI5993
aI6006
aI6027
aI6126
aI6180
aI6347
aI6356
aI6361
aI6381
aI6699
aI6763
aI6837
aI6846
aI6855
aI6868
aI6880
aI6909
aI6993
aI7007
aI7136
aI7475
aI7586
aI7617
aI7631
aI7747
aI7761
aI7811
aI7864
asS'sig01a'
(lp114
I18
aI32
aI151
aI440
aI443
aI445
aI447
aI451
aI452
aI454
aI459
aI461
aI782
aI816
aI953
aI1019
aI1273
aI1310
aI1374
aI1376
aI1393
aI1396
aI1397
aI1578
aI1581
aI1776
aI1791
aI1818
aI1871
aI2041
aI2056
aI2097
aI2222
aI2236
aI2338
aI2386
aI2633
aI2693
aI2696
aI2754
aI2902
aI2905
aI3255
aI3257
aI3259
aI3298
aI3326
aI3358
aI3359
aI3537
aI3541
aI3542
aI3688
aI3695
aI3839
aI3841
aI3844
aI3846
aI3860
aI3874
aI3891
aI3892
aI3933
aI3966
aI4027
aI4043
aI4145
aI4167
aI4230
aI4498
aI4501
aI4661
aI4662
aI4664
aI4671
aI4695
aI4705
aI4890
aI4905
aI4999
aI5237
aI5367
aI5523
aI5527
aI5533
aI5549
aI5564
aI5582
aI5606
aI5777
aI5784
aI5839
aI5841
aI5843
aI5845
aI5848
aI5861
aI5870
aI5879
aI5899
aI6000
aI6002
aI6006
aI6132
aI6204
aI6207
aI6345
aI6349
aI6352
aI6605
aI6769
aI6775
aI6829
aI6900
aI6983
aI6986
aI6989
aI6994
aI7002
aI7205
aI7301
aI7451
aI7576
aI7627
aI7643
aI7732
aI7733
aI7735
aI7736
aI7740
aI7742
aI7809
assI1
(dp115
S'sig01b'
(lp116
I60
aI1206
aI1699
aI1805
aI2846
aI3340
aI3361
aI3378
aI3386
aI3412
aI3424
aI3434
aI3455
aI3473
aI3487
aI3497
aI3510
aI3540
aI3581
aI3610
aI3630
aI3676
aI3715
aI3777
aI3797
aI3822
aI3841
aI3857
aI3878
aI3903
aI3912
aI3922
aI3947
aI3962
aI3980
aI3996
aI4008
aI4016
aI4024
aI4034
aI4046
aI4061
aI4069
aI4084
aI4097
aI4113
aI4124
aI4137
aI4152
aI4174
aI4185
aI4215
aI4227
aI4246
aI4255
aI4268
aI4299
aI4335
aI4341
aI4372
aI4409
aI4420
aI4519
aI4530
aI4533
aI4551
aI4566
aI4592
aI4648
aI4659
aI4701
aI4742
aI4769
aI4790
aI4821
aI4827
aI4834
aI4843
aI4875
aI4934
aI5041
aI5132
aI5143
aI5215
aI5251
aI5289
aI5424
aI5463
aI5515
aI5527
aI5537
aI5584
aI5617
aI5626
aI5662
aI5678
aI5684
aI5694
aI5703
aI5716
aI5735
aI5737
aI5745
aI5789
aI5805
aI5815
aI5829
aI5859
aI5876
aI5895
aI5979
aI6020
aI6047
aI6050
aI6061
aI6074
aI6080
aI6121
aI6157
aI6166
aI6179
aI6209
aI6226
aI6231
aI6251
aI6262
aI6272
aI6341
aI6361
aI6456
aI6461
aI6464
aI6480
aI6500
aI6547
aI6560
aI6577
aI6593
aI6609
aI6618
aI6637
aI6723
aI6735
aI6742
aI6753
aI6763
aI6792
aI6822
aI6840
aI6852
aI6867
aI6988
aI7007
aI7012
aI7021
aI7024
aI7038
aI7058
aI7154
aI7168
aI7178
aI7213
aI7574
aI7581
aI7589
aI7600
aI7609
aI7724
aI7731
aI7771
aI7785
aI7793
aI7813
aI7827
aI7837
aI7840
aI7849
aI7856
aI7858
aI7866
aI7874
aI7893
asS'sig01a'
(lp117
I52
aI53
aI202
aI228
aI427
aI512
aI514
aI515
aI534
aI536
aI573
aI797
aI956
aI959
aI962
aI980
aI982
aI1196
aI1199
aI1408
aI1412
aI1439
aI1730
aI1789
aI1915
aI1939
aI2098
aI2143
aI2281
aI2285
aI2312
aI2341
aI2498
aI2588
aI2790
aI2829
aI2885
aI2890
aI2895
aI3310
aI3316
aI3319
aI3374
aI3881
aI3890
aI3892
aI3951
aI4065
aI4467
aI4513
aI4610
aI4614
aI4830
aI4842
aI4882
aI5058
aI5097
aI5358
aI5469
aI5599
aI5601
aI5605
aI5607
aI5618
aI5636
aI5654
aI5690
aI5770
aI5773
aI5840
aI5996
aI6019
aI6022
aI6023
aI6029
aI6034
aI6037
aI6039
aI6042
aI6110
aI6242
aI6299
aI6407
aI6727
aI6739
aI7049
aI7061
aI7076
aI7374
aI7396
aI7549
aI7561
aI7610
aI7613
aI7736
aI7737
aI7742
aI7745
aI7759
aI7824
aI7833
aI7850
aI7863
aI7900
aI7904
assI0
(dp118
S'sig01b'
p119
(lp120
I33
aI111
aI201
aI215
aI223
aI239
aI271
aI306
aI320
aI576
aI589
aI618
aI624
aI632
aI635
aI655
aI664
aI674
aI679
aI698
aI970
aI1380
aI1388
aI1394
aI1407
aI1422
aI1427
aI1437
aI1456
aI1497
aI2277
aI2285
aI2296
aI2336
aI2538
aI2567
aI2578
aI2612
aI2637
aI2661
aI2673
aI2694
aI2726
aI3247
aI3264
aI3274
aI3288
aI3302
aI3307
aI3331
aI3349
aI3391
aI3405
aI3424
aI3445
aI3460
aI3472
aI3493
aI3502
aI3515
aI3526
aI3547
aI3574
aI3588
aI3618
aI3645
aI3692
aI3851
aI3905
aI3962
aI3976
aI4021
aI4037
aI4059
aI4079
aI4103
aI4124
aI4137
aI4167
aI4211
aI4227
aI4323
aI4372
aI4585
aI4665
aI4691
aI4701
aI4715
aI4953
aI5068
aI5087
aI5158
aI5176
aI5187
aI5268
aI5305
aI5331
aI5367
aI5407
aI5416
aI5425
aI5429
aI5435
aI5440
aI5445
aI5454
aI5457
aI5463
aI5473
aI5487
aI5512
aI5530
aI5537
aI5545
aI5563
aI5574
aI5823
aI5887
aI5905
aI5925
aI5940
aI5967
aI5992
aI6014
aI6025
aI6043
aI6066
aI6081
aI6098
aI6107
aI6116
aI6125
aI6133
aI6161
aI6171
aI6197
aI6205
aI6214
aI6240
aI6254
aI6272
aI6274
aI6312
aI6321
aI6328
aI6333
aI6351
aI7568
aI7999
aI8217
aI8226
aI8238
aI8283
aI8329
aI8333
aI9914
aI9925
asS'sig01a'
p121
(lp122
I140
aI160
aI167
aI219
aI402
aI405
aI533
aI636
aI667
aI908
aI911
aI913
aI915
aI917
aI920
aI922
aI925
aI935
aI1298
aI1300
aI1304
aI1307
aI1423
aI1514
aI1515
aI1800
aI1862
aI1864
aI1866
aI1868
aI2217
aI2476
aI2479
aI2503
aI2577
aI2594
aI2726
aI2853
aI2855
aI2939
aI2942
aI3073
aI3075
aI3078
aI3271
aI3277
aI3326
aI3328
aI3357
aI3680
aI3849
aI4200
aI4320
aI4338
aI4681
aI4682
aI4683
aI4685
aI4689
aI4787
aI4915
aI4918
aI4922
aI5147
aI5149
aI5163
aI5317
aI5400
aI5421
aI5422
aI5433
aI5560
aI5724
aI5726
aI5825
aI5833
aI5841
aI5853
aI5866
aI5876
aI5881
aI5893
aI5947
aI5951
aI5957
aI5990
aI5998
aI6019
aI6023
aI6027
aI6031
aI6046
aI6174
aI6234
aI6237
aI6246
aI6249
aI6258
aI6281
aI6344
aI6372
aI6461
aI6463
aI6555
aI6557
aI6561
aI6563
aI6638
aI6713
aI6719
aI6789
aI7097
aI7104
aI7127
aI7130
aI7134
aI7136
aI7140
aI7143
aI7146
aI7599
aI7957
aI8200
aI8366
aI8373
aI8375
aI9092
aI9186
aI9666
aI9702
aI9705
aI9834
aI9927
aI10230
aI10606
aI10674
aI10676
aI10703
asssS'neurons'
p123
(lp124
g119
ag121
asS'channellist'
p125
(dp126
g119
I1
sg121
I1
ssS'header'
p127
(i__main__
Header
(dp128
S'ndsp'
p129
I16
sS'nslow'
p130
I64
sS'npr'
p131
I12
sS'freq'
p132
I40000
sS'npw'
p133
I32
sS'vers'
p134
I102
sS'nevents'
p135
I28
sbsb.